Certificate:
    Data:
        Version: 3 (0x2)
        Serial Number: 15 (0xf)
    Signature Algorithm: sha1WithRSAEncryption
        Issuer: DC=org, DC=mplane, O=PKI, OU=Signing-CA, CN=Signing-CA-1
        Validity
            Not Before: Sep  8 10:29:13 2014 GMT
            Not After : Sep  7 10:29:13 2016 GMT
        Subject: DC=org, DC=mplane, O=PKI, OU=Clients, CN=Client-1
        Subject Public Key Info:
            Public Key Algorithm: rsaEncryption
                Public-Key: (1024 bit)
                Modulus:
                    00:ba:aa:fe:2c:81:20:48:26:13:94:c7:36:f4:58:
                    dc:ff:6b:19:fd:fb:15:22:96:7f:07:e1:ae:12:2f:
                    f8:68:59:79:cc:8c:82:54:ae:8b:ec:b0:65:ac:44:
                    46:64:1c:1c:58:35:93:70:56:41:5a:9a:e1:2a:31:
                    38:87:e0:57:79:ee:68:48:66:75:80:35:b2:7a:f0:
                    7b:d4:1b:5a:f4:99:27:79:7c:09:ee:57:86:2f:3f:
                    b2:1a:6b:d0:8a:89:a3:87:c9:2b:83:1d:20:32:f1:
                    3c:cf:bf:aa:63:d1:fd:59:ac:5f:db:46:37:67:18:
                    da:e9:ff:47:10:28:95:c5:7f
                Exponent: 65537 (0x10001)
        X509v3 extensions:
            X509v3 Key Usage: critical
                Digital Signature, Key Encipherment
            X509v3 Basic Constraints: 
                CA:FALSE
            X509v3 Extended Key Usage: 
                E-mail Protection, TLS Web Client Authentication
            X509v3 Subject Key Identifier: 
                5B:01:CD:31:EF:DD:A1:A7:5C:FF:B4:1B:57:4C:80:87:80:7B:74:CF
            X509v3 Authority Key Identifier: 
                keyid:4E:17:4E:AA:91:D1:41:4F:AD:04:AD:19:AB:5B:B3:A0:18:3B:DD:96

    Signature Algorithm: sha1WithRSAEncryption
         7a:97:c4:da:25:b1:ce:19:76:6a:ea:22:f6:97:bd:bf:23:95:
         12:3c:39:20:b3:d5:51:ae:03:3d:31:a7:52:fe:2a:a8:00:ce:
         9f:c8:8a:55:09:17:75:c2:da:60:42:67:bc:eb:2d:e1:31:23:
         54:ac:b8:33:af:eb:86:30:74:c1:32:61:87:dd:a6:48:33:89:
         c9:d9:01:e0:08:ed:2e:a2:62:a3:0a:29:5e:0f:bf:14:d2:66:
         e0:ea:5f:d8:eb:ac:41:6e:82:00:4a:4b:49:99:e5:48:41:0e:
         cd:8a:ec:fe:8a:e6:f6:57:3e:13:22:77:4f:74:5e:f9:db:dd:
         b4:9a:7d:ec:3c:e3:1e:00:38:5a:18:80:45:17:d2:4e:ec:05:
         ea:d4:9b:9c:ca:e7:9d:21:50:4f:39:48:53:7f:7a:20:47:2f:
         d8:90:72:ee:92:b6:94:a1:7a:c4:c5:d4:27:c6:25:86:25:db:
         e6:93:a9:9f:86:3d:6d:b4:fa:22:59:4c:ac:a9:ef:a6:ff:16:
         25:ad:4d:66:b0:3a:77:5e:c7:ef:1a:cc:15:43:27:2d:b0:df:
         7f:a6:81:35:c7:13:17:ef:cf:ea:3d:66:e6:62:cf:29:19:47:
         f4:73:2e:bc:f8:c6:4e:72:58:77:98:70:97:3a:25:7d:09:34:
         9f:47:20:be
-----BEGIN CERTIFICATE-----
MIIDOjCCAiKgAwIBAgIBDzANBgkqhkiG9w0BAQUFADBnMRMwEQYKCZImiZPyLGQB
GRYDb3JnMRYwFAYKCZImiZPyLGQBGRYGbXBsYW5lMQwwCgYDVQQKDANQS0kxEzAR
BgNVBAsMClNpZ25pbmctQ0ExFTATBgNVBAMMDFNpZ25pbmctQ0EtMTAeFw0xNDA5
MDgxMDI5MTNaFw0xNjA5MDcxMDI5MTNaMGAxEzARBgoJkiaJk/IsZAEZFgNvcmcx
FjAUBgoJkiaJk/IsZAEZFgZtcGxhbmUxDDAKBgNVBAoMA1BLSTEQMA4GA1UECwwH
Q2xpZW50czERMA8GA1UEAwwIQ2xpZW50LTEwgZ8wDQYJKoZIhvcNAQEBBQADgY0A
MIGJAoGBALqq/iyBIEgmE5THNvRY3P9rGf37FSKWfwfhrhIv+GhZecyMglSui+yw
ZaxERmQcHFg1k3BWQVqa4SoxOIfgV3nuaEhmdYA1snrwe9QbWvSZJ3l8Ce5Xhi8/
shpr0IqJo4fJK4MdIDLxPM+/qmPR/VmsX9tGN2cY2un/RxAolcV/AgMBAAGjfDB6
MA4GA1UdDwEB/wQEAwIFoDAJBgNVHRMEAjAAMB0GA1UdJQQWMBQGCCsGAQUFBwME
BggrBgEFBQcDAjAdBgNVHQ4EFgQUWwHNMe/doadc/7QbV0yAh4B7dM8wHwYDVR0j
BBgwFoAUThdOqpHRQU+tBK0Zq1uzoBg73ZYwDQYJKoZIhvcNAQEFBQADggEBAHqX
xNolsc4ZdmrqIvaXvb8jlRI8OSCz1VGuAz0xp1L+KqgAzp/IilUJF3XC2mBCZ7zr
LeExI1SsuDOv64YwdMEyYYfdpkgzicnZAeAI7S6iYqMKKV4PvxTSZuDqX9jrrEFu
ggBKS0mZ5UhBDs2K7P6K5vZXPhMid090Xvnb3bSafew84x4AOFoYgEUX0k7sBerU
m5zK550hUE85SFN/eiBHL9iQcu6StpShesTF1CfGJYYl2+aTqZ+GPW20+iJZTKyp
76b/FiWtTWawOndex+8azBVDJy2w33+mgTXHExfvz+o9ZuZizykZR/RzLrz4xk5y
WHeYcJc6JX0JNJ9HIL4=
-----END CERTIFICATE-----
