Certificate:
    Data:
        Version: 3 (0x2)
        Serial Number: 17 (0x11)
    Signature Algorithm: sha1WithRSAEncryption
        Issuer: DC=org, DC=mplane, O=PKI, OU=Signing-CA, CN=Signing-CA-1
        Validity
            Not Before: Sep  8 10:30:05 2014 GMT
            Not After : Sep  7 10:30:05 2016 GMT
        Subject: DC=org, DC=mplane, O=PKI, OU=Clients, CN=Client-3
        Subject Public Key Info:
            Public Key Algorithm: rsaEncryption
                Public-Key: (1024 bit)
                Modulus:
                    00:cc:65:85:0b:71:b5:a8:aa:87:c8:66:4f:56:af:
                    c3:cc:e8:37:2a:15:06:ff:13:d0:82:1e:34:0a:e5:
                    44:5a:b6:18:9f:0a:7c:ae:da:ad:d3:78:89:17:f1:
                    60:98:2a:1f:9a:03:4e:02:9c:ec:65:59:4e:58:d8:
                    1a:d9:1f:03:65:b2:3b:36:d7:fd:bc:9a:b4:5a:89:
                    2d:60:f5:43:81:60:55:7d:14:bc:ef:51:4e:9d:02:
                    69:ae:fc:26:77:fc:47:22:2c:cd:7b:cf:a6:77:76:
                    50:67:52:2f:a2:f8:ab:18:51:e9:e5:43:14:f9:90:
                    96:6e:54:de:81:c3:cc:e7:bd
                Exponent: 65537 (0x10001)
        X509v3 extensions:
            X509v3 Key Usage: critical
                Digital Signature, Key Encipherment
            X509v3 Basic Constraints: 
                CA:FALSE
            X509v3 Extended Key Usage: 
                E-mail Protection, TLS Web Client Authentication
            X509v3 Subject Key Identifier: 
                66:F4:DF:69:EB:61:9A:DA:E9:22:38:45:C9:B1:88:A7:33:E7:A9:78
            X509v3 Authority Key Identifier: 
                keyid:4E:17:4E:AA:91:D1:41:4F:AD:04:AD:19:AB:5B:B3:A0:18:3B:DD:96

    Signature Algorithm: sha1WithRSAEncryption
         91:9e:be:88:b3:25:b8:cb:f2:3a:c1:4a:f3:b8:3f:a9:58:7d:
         9d:56:82:46:c9:7d:d2:9e:02:34:d2:30:a3:5d:e6:27:b1:19:
         50:e6:82:a2:90:23:60:32:ad:51:83:03:33:7e:1d:b3:11:d7:
         cd:69:e6:78:b9:d7:c1:4e:b4:9d:09:33:3e:a1:0a:c9:40:3f:
         de:f7:5a:cb:22:00:d2:ec:1b:c0:f2:64:3c:9e:43:62:0c:80:
         6e:90:0f:38:87:5a:ba:4a:fd:66:1a:e4:b9:22:28:93:71:c8:
         70:fd:06:c3:8b:d4:38:0b:b3:6b:25:a5:f9:1f:e7:fc:c1:01:
         f7:74:36:9e:23:11:75:2c:88:ad:5e:a8:8d:a0:0d:29:a2:7e:
         53:a2:bc:02:03:45:b7:49:eb:25:58:42:c0:85:08:63:8e:c0:
         56:fa:61:e1:de:95:3f:e8:34:79:50:15:00:92:e2:02:2e:a5:
         81:dd:24:de:b4:f3:57:88:a2:59:2e:9e:54:84:04:59:b3:30:
         d7:9d:ff:e2:bc:63:cf:7c:89:8b:be:78:54:cf:33:71:3d:1b:
         98:b0:8c:bb:56:03:44:63:7e:ba:73:c6:e9:35:d6:ba:bc:6c:
         9f:5f:cb:b5:fe:3f:38:2a:bb:1a:71:03:b2:2f:79:66:de:f1:
         39:65:b7:25
-----BEGIN CERTIFICATE-----
MIIDOjCCAiKgAwIBAgIBETANBgkqhkiG9w0BAQUFADBnMRMwEQYKCZImiZPyLGQB
GRYDb3JnMRYwFAYKCZImiZPyLGQBGRYGbXBsYW5lMQwwCgYDVQQKDANQS0kxEzAR
BgNVBAsMClNpZ25pbmctQ0ExFTATBgNVBAMMDFNpZ25pbmctQ0EtMTAeFw0xNDA5
MDgxMDMwMDVaFw0xNjA5MDcxMDMwMDVaMGAxEzARBgoJkiaJk/IsZAEZFgNvcmcx
FjAUBgoJkiaJk/IsZAEZFgZtcGxhbmUxDDAKBgNVBAoMA1BLSTEQMA4GA1UECwwH
Q2xpZW50czERMA8GA1UEAwwIQ2xpZW50LTMwgZ8wDQYJKoZIhvcNAQEBBQADgY0A
MIGJAoGBAMxlhQtxtaiqh8hmT1avw8zoNyoVBv8T0IIeNArlRFq2GJ8KfK7ardN4
iRfxYJgqH5oDTgKc7GVZTljYGtkfA2WyOzbX/byatFqJLWD1Q4FgVX0UvO9RTp0C
aa78Jnf8RyIszXvPpnd2UGdSL6L4qxhR6eVDFPmQlm5U3oHDzOe9AgMBAAGjfDB6
MA4GA1UdDwEB/wQEAwIFoDAJBgNVHRMEAjAAMB0GA1UdJQQWMBQGCCsGAQUFBwME
BggrBgEFBQcDAjAdBgNVHQ4EFgQUZvTfaethmtrpIjhFybGIpzPnqXgwHwYDVR0j
BBgwFoAUThdOqpHRQU+tBK0Zq1uzoBg73ZYwDQYJKoZIhvcNAQEFBQADggEBAJGe
voizJbjL8jrBSvO4P6lYfZ1WgkbJfdKeAjTSMKNd5iexGVDmgqKQI2AyrVGDAzN+
HbMR181p5ni518FOtJ0JMz6hCslAP973WssiANLsG8DyZDyeQ2IMgG6QDziHWrpK
/WYa5LkiKJNxyHD9BsOL1DgLs2slpfkf5/zBAfd0Np4jEXUsiK1eqI2gDSmiflOi
vAIDRbdJ6yVYQsCFCGOOwFb6YeHelT/oNHlQFQCS4gIupYHdJN6081eIolkunlSE
BFmzMNed/+K8Y898iYu+eFTPM3E9G5iwjLtWA0Rjfrpzxuk11rq8bJ9fy7X+Pzgq
uxpxA7IveWbe8TlltyU=
-----END CERTIFICATE-----
