Certificate:
    Data:
        Version: 3 (0x2)
        Serial Number: 16 (0x10)
    Signature Algorithm: sha1WithRSAEncryption
        Issuer: DC=org, DC=mplane, O=PKI, OU=Signing-CA, CN=Signing-CA-1
        Validity
            Not Before: Sep  8 10:29:36 2014 GMT
            Not After : Sep  7 10:29:36 2016 GMT
        Subject: DC=org, DC=mplane, O=PKI, OU=Clients, CN=Client-2
        Subject Public Key Info:
            Public Key Algorithm: rsaEncryption
                Public-Key: (1024 bit)
                Modulus:
                    00:e5:5b:c0:62:58:61:b4:4d:52:ed:1e:cf:40:84:
                    25:c4:c1:c5:15:9b:73:18:8e:a9:7f:bc:4f:ae:de:
                    ec:a4:47:6b:a4:2f:a8:57:21:a8:ee:77:73:8f:d8:
                    b2:51:e3:1c:25:1f:e0:6e:55:a8:de:7e:e1:a4:7f:
                    66:24:2f:bc:d8:52:a4:5d:27:e0:29:77:89:cb:f7:
                    ae:3a:44:96:8b:f7:dd:64:37:8e:ad:85:25:e3:21:
                    16:42:b1:8d:10:eb:22:78:f2:ce:d3:75:0d:26:5f:
                    83:53:78:9b:d0:ff:ed:7b:74:38:e3:aa:bc:16:11:
                    b7:6b:36:f9:be:a9:29:46:e3
                Exponent: 65537 (0x10001)
        X509v3 extensions:
            X509v3 Key Usage: critical
                Digital Signature, Key Encipherment
            X509v3 Basic Constraints: 
                CA:FALSE
            X509v3 Extended Key Usage: 
                E-mail Protection, TLS Web Client Authentication
            X509v3 Subject Key Identifier: 
                5C:FB:30:F3:9A:FB:EC:72:AF:B8:78:AF:D3:BD:B3:43:8A:6A:A9:6A
            X509v3 Authority Key Identifier: 
                keyid:4E:17:4E:AA:91:D1:41:4F:AD:04:AD:19:AB:5B:B3:A0:18:3B:DD:96

    Signature Algorithm: sha1WithRSAEncryption
         8e:86:ea:23:07:ab:b4:61:24:4a:2f:3c:6e:79:35:a6:2c:98:
         2b:b1:72:65:49:28:49:cb:31:31:50:c3:39:9d:5e:0b:66:e7:
         1b:ea:a5:db:03:2c:82:fe:bd:55:bf:c5:d4:7b:d6:b0:bf:ef:
         5e:0a:57:00:a6:c5:2b:c1:be:0a:40:a4:2d:f9:2b:2d:5e:db:
         d5:6c:6f:c7:ac:8a:e4:20:94:35:69:69:d4:c0:cc:36:a4:f6:
         81:5b:42:45:83:a0:71:80:46:24:df:a3:ee:fd:d3:c8:2a:1d:
         26:5b:73:c8:75:2f:f5:25:b0:01:8f:da:ca:2b:7e:fa:8d:c7:
         35:d9:12:6f:17:9d:9e:93:d0:ef:fe:3c:89:b5:11:f8:54:3f:
         30:9d:37:e9:d4:f0:87:b9:65:97:78:1e:22:58:d4:b2:21:8d:
         fe:b5:ff:4e:71:5d:5d:bc:ec:d0:3d:78:fb:89:00:ec:d6:e1:
         41:82:ad:d0:66:75:f9:eb:52:4a:71:82:b8:e9:b4:6b:11:72:
         84:ba:96:2a:39:7b:bc:71:7d:67:ed:85:45:31:56:ef:51:85:
         d0:80:d0:6c:06:c4:8c:e6:29:2e:53:e5:65:3e:2f:b1:17:4e:
         07:6a:85:19:6e:cb:32:01:11:c3:80:67:c5:e1:86:a7:89:bc:
         bf:08:fe:88
-----BEGIN CERTIFICATE-----
MIIDOjCCAiKgAwIBAgIBEDANBgkqhkiG9w0BAQUFADBnMRMwEQYKCZImiZPyLGQB
GRYDb3JnMRYwFAYKCZImiZPyLGQBGRYGbXBsYW5lMQwwCgYDVQQKDANQS0kxEzAR
BgNVBAsMClNpZ25pbmctQ0ExFTATBgNVBAMMDFNpZ25pbmctQ0EtMTAeFw0xNDA5
MDgxMDI5MzZaFw0xNjA5MDcxMDI5MzZaMGAxEzARBgoJkiaJk/IsZAEZFgNvcmcx
FjAUBgoJkiaJk/IsZAEZFgZtcGxhbmUxDDAKBgNVBAoMA1BLSTEQMA4GA1UECwwH
Q2xpZW50czERMA8GA1UEAwwIQ2xpZW50LTIwgZ8wDQYJKoZIhvcNAQEBBQADgY0A
MIGJAoGBAOVbwGJYYbRNUu0ez0CEJcTBxRWbcxiOqX+8T67e7KRHa6QvqFchqO53
c4/YslHjHCUf4G5VqN5+4aR/ZiQvvNhSpF0n4Cl3icv3rjpElov33WQ3jq2FJeMh
FkKxjRDrInjyztN1DSZfg1N4m9D/7Xt0OOOqvBYRt2s2+b6pKUbjAgMBAAGjfDB6
MA4GA1UdDwEB/wQEAwIFoDAJBgNVHRMEAjAAMB0GA1UdJQQWMBQGCCsGAQUFBwME
BggrBgEFBQcDAjAdBgNVHQ4EFgQUXPsw85r77HKvuHiv072zQ4pqqWowHwYDVR0j
BBgwFoAUThdOqpHRQU+tBK0Zq1uzoBg73ZYwDQYJKoZIhvcNAQEFBQADggEBAI6G
6iMHq7RhJEovPG55NaYsmCuxcmVJKEnLMTFQwzmdXgtm5xvqpdsDLIL+vVW/xdR7
1rC/714KVwCmxSvBvgpApC35Ky1e29Vsb8esiuQglDVpadTAzDak9oFbQkWDoHGA
RiTfo+7908gqHSZbc8h1L/UlsAGP2sorfvqNxzXZEm8XnZ6T0O/+PIm1EfhUPzCd
N+nU8Ie5ZZd4HiJY1LIhjf61/05xXV287NA9ePuJAOzW4UGCrdBmdfnrUkpxgrjp
tGsRcoS6lio5e7xxfWfthUUxVu9RhdCA0GwGxIzmKS5T5WU+L7EXTgdqhRluyzIB
EcOAZ8XhhqeJvL8I/og=
-----END CERTIFICATE-----
