Certificate:
    Data:
        Version: 3 (0x2)
        Serial Number: 5 (0x5)
    Signature Algorithm: sha1WithRSAEncryption
        Issuer: DC=org, DC=mplane, O=PKI, OU=Signing-CA, CN=Signing-CA-1
        Validity
            Not Before: Sep  8 10:22:11 2014 GMT
            Not After : Sep  7 10:22:11 2016 GMT
        Subject: DC=org, DC=mplane, O=PKI, OU=Components, CN=Component-1
        Subject Public Key Info:
            Public Key Algorithm: rsaEncryption
                Public-Key: (1024 bit)
                Modulus:
                    00:c0:98:f9:39:5c:97:87:9f:2f:46:ff:67:88:9b:
                    f8:d4:4f:eb:1e:05:11:26:3d:10:f5:b4:14:65:5f:
                    08:84:b6:1f:7a:bb:2c:e4:05:88:d7:71:f7:65:19:
                    4b:2f:20:fa:56:30:dd:23:42:92:55:0e:98:dd:16:
                    36:01:af:d6:f1:93:82:82:b7:f7:0b:f5:d5:6b:44:
                    02:33:52:c0:4b:84:3a:1f:fb:cb:df:0d:f6:00:d3:
                    27:17:d8:36:e6:0b:37:5c:75:cc:f6:4b:d2:46:2d:
                    9a:c2:83:f3:38:95:e5:b5:f3:2d:ba:f0:48:1f:c3:
                    ab:00:1b:5c:10:29:43:f7:d9
                Exponent: 65537 (0x10001)
        X509v3 extensions:
            X509v3 Key Usage: critical
                Digital Signature, Key Encipherment
            X509v3 Basic Constraints: 
                CA:FALSE
            X509v3 Extended Key Usage: 
                E-mail Protection, TLS Web Client Authentication
            X509v3 Subject Key Identifier: 
                9D:E7:90:80:4F:B5:FD:D2:ED:01:20:28:0D:D4:A6:CA:0C:BD:81:BE
            X509v3 Authority Key Identifier: 
                keyid:4E:17:4E:AA:91:D1:41:4F:AD:04:AD:19:AB:5B:B3:A0:18:3B:DD:96

    Signature Algorithm: sha1WithRSAEncryption
         1c:6a:78:65:1f:96:e6:dc:85:de:30:91:47:fa:e1:9c:9c:55:
         a3:bd:0c:16:52:f1:3e:6a:75:6c:37:ab:37:50:f6:ac:0a:6b:
         ca:64:8a:dc:64:cf:43:c3:55:09:2a:72:0c:0a:d0:f3:6e:8a:
         2c:62:e0:1b:52:1c:22:36:4a:42:58:a8:c8:3f:1b:3e:30:a3:
         46:93:02:3c:d7:18:5b:85:61:82:f4:1b:2e:f1:39:ca:8c:bb:
         e6:57:f5:a1:60:26:61:af:a0:97:62:8c:ed:d0:bd:28:a7:b1:
         70:c0:95:6b:46:5a:28:c3:af:71:d2:6f:eb:ab:01:a2:3c:a4:
         0d:d0:d5:e5:5c:a2:3f:c4:b3:7f:5f:c0:03:f0:99:c4:e9:52:
         d0:83:55:59:74:89:d2:db:9d:af:39:ce:35:33:21:e3:69:eb:
         a3:1a:d8:6a:31:d3:99:74:82:97:71:5a:60:32:ed:03:8a:75:
         c2:f8:b7:4d:69:80:a5:28:79:1d:02:8b:64:cf:50:82:2b:0d:
         3c:0f:25:56:de:5a:fc:88:d5:a1:72:b8:b8:1e:a2:25:4b:15:
         3f:c0:e1:93:51:e8:e5:ae:aa:f2:de:65:a6:1b:a1:e3:ac:60:
         02:bd:18:6d:a2:6d:7a:47:8c:e8:11:21:d0:d1:a0:bf:7a:26:
         97:cc:07:7c
-----BEGIN CERTIFICATE-----
MIIDQDCCAiigAwIBAgIBBTANBgkqhkiG9w0BAQUFADBnMRMwEQYKCZImiZPyLGQB
GRYDb3JnMRYwFAYKCZImiZPyLGQBGRYGbXBsYW5lMQwwCgYDVQQKDANQS0kxEzAR
BgNVBAsMClNpZ25pbmctQ0ExFTATBgNVBAMMDFNpZ25pbmctQ0EtMTAeFw0xNDA5
MDgxMDIyMTFaFw0xNjA5MDcxMDIyMTFaMGYxEzARBgoJkiaJk/IsZAEZFgNvcmcx
FjAUBgoJkiaJk/IsZAEZFgZtcGxhbmUxDDAKBgNVBAoMA1BLSTETMBEGA1UECwwK
Q29tcG9uZW50czEUMBIGA1UEAwwLQ29tcG9uZW50LTEwgZ8wDQYJKoZIhvcNAQEB
BQADgY0AMIGJAoGBAMCY+Tlcl4efL0b/Z4ib+NRP6x4FESY9EPW0FGVfCIS2H3q7
LOQFiNdx92UZSy8g+lYw3SNCklUOmN0WNgGv1vGTgoK39wv11WtEAjNSwEuEOh/7
y98N9gDTJxfYNuYLN1x1zPZL0kYtmsKD8ziV5bXzLbrwSB/DqwAbXBApQ/fZAgMB
AAGjfDB6MA4GA1UdDwEB/wQEAwIFoDAJBgNVHRMEAjAAMB0GA1UdJQQWMBQGCCsG
AQUFBwMEBggrBgEFBQcDAjAdBgNVHQ4EFgQUneeQgE+1/dLtASAoDdSmygy9gb4w
HwYDVR0jBBgwFoAUThdOqpHRQU+tBK0Zq1uzoBg73ZYwDQYJKoZIhvcNAQEFBQAD
ggEBABxqeGUflubchd4wkUf64ZycVaO9DBZS8T5qdWw3qzdQ9qwKa8pkitxkz0PD
VQkqcgwK0PNuiixi4BtSHCI2SkJYqMg/Gz4wo0aTAjzXGFuFYYL0Gy7xOcqMu+ZX
9aFgJmGvoJdijO3QvSinsXDAlWtGWijDr3HSb+urAaI8pA3Q1eVcoj/Es39fwAPw
mcTpUtCDVVl0idLbna85zjUzIeNp66Ma2Gox05l0gpdxWmAy7QOKdcL4t01pgKUo
eR0Ci2TPUIIrDTwPJVbeWvyI1aFyuLgeoiVLFT/A4ZNR6OWuqvLeZaYboeOsYAK9
GG2ibXpHjOgRIdDRoL96JpfMB3w=
-----END CERTIFICATE-----
