Certificate:
    Data:
        Version: 3 (0x2)
        Serial Number: 6 (0x6)
    Signature Algorithm: sha1WithRSAEncryption
        Issuer: DC=org, DC=mplane, O=PKI, OU=Signing-CA, CN=Signing-CA-1
        Validity
            Not Before: Sep  8 10:23:18 2014 GMT
            Not After : Sep  7 10:23:18 2016 GMT
        Subject: DC=org, DC=mplane, O=PKI, OU=Components, CN=Component-2
        Subject Public Key Info:
            Public Key Algorithm: rsaEncryption
                Public-Key: (1024 bit)
                Modulus:
                    00:f7:37:cd:13:50:b8:ed:c2:7d:2c:3b:52:73:8f:
                    0d:e6:83:05:9d:16:b5:be:45:df:3f:2f:7c:8f:6f:
                    a1:56:8a:e2:d5:4d:78:a1:d6:b2:8b:bb:07:bb:cc:
                    06:16:e2:4c:97:5a:03:4f:a7:fc:8b:71:bb:11:ca:
                    c7:e8:25:37:73:fb:00:2f:ef:87:79:c7:e2:10:ad:
                    24:fb:91:83:ad:28:ba:2a:98:cf:5e:3e:ed:aa:94:
                    37:d9:b6:25:ad:22:55:62:ab:ba:86:ee:e3:bd:26:
                    f4:d1:6c:99:06:8d:d7:d0:0c:1d:7b:a4:5d:22:07:
                    9f:93:b6:9f:27:7d:3e:75:d1
                Exponent: 65537 (0x10001)
        X509v3 extensions:
            X509v3 Key Usage: critical
                Digital Signature, Key Encipherment
            X509v3 Basic Constraints: 
                CA:FALSE
            X509v3 Extended Key Usage: 
                E-mail Protection, TLS Web Client Authentication
            X509v3 Subject Key Identifier: 
                B1:49:34:46:0B:5B:6F:63:9D:96:46:A8:45:31:F2:87:9B:C2:71:58
            X509v3 Authority Key Identifier: 
                keyid:4E:17:4E:AA:91:D1:41:4F:AD:04:AD:19:AB:5B:B3:A0:18:3B:DD:96

    Signature Algorithm: sha1WithRSAEncryption
         04:3f:00:71:59:0f:2b:d6:fe:05:74:29:f9:5f:ed:c1:a0:18:
         ea:77:f9:09:4d:5f:7d:28:42:b7:76:e8:44:d0:91:52:ad:2a:
         0b:a8:9e:10:a6:fd:99:f0:6f:55:0d:3e:95:2e:7a:11:12:6c:
         45:a9:54:ed:27:73:1d:7c:36:10:bb:83:e8:5a:8f:87:b3:a3:
         63:aa:81:d1:76:05:26:55:25:01:40:8a:49:87:9e:f2:7a:2e:
         38:36:77:d8:e6:48:dd:c1:c0:85:66:6b:c1:53:5f:78:9d:25:
         90:e3:84:cb:32:07:b8:67:d5:19:e2:66:4f:86:07:fe:50:91:
         62:fa:78:dc:86:ea:b8:6a:db:03:5b:e9:a2:d1:68:a6:87:24:
         a0:a5:41:0f:58:7d:33:30:73:8c:87:26:b0:f0:5d:3a:d3:e2:
         34:43:fb:b2:54:9b:09:34:7c:0d:4d:59:99:b8:ec:9c:33:28:
         00:29:99:c2:67:5a:14:d5:f7:51:cc:77:99:d5:38:cc:0f:e0:
         5f:44:06:88:85:97:0c:70:7b:1d:68:a8:8d:2e:0a:62:e3:b5:
         f0:3e:7e:c6:40:a6:b8:3c:5c:6d:bf:57:9f:8b:e1:15:94:ec:
         7d:17:db:3c:aa:fd:d1:08:0f:bb:9e:1b:2f:82:6e:df:a5:6b:
         e0:2f:1f:e8
-----BEGIN CERTIFICATE-----
MIIDQDCCAiigAwIBAgIBBjANBgkqhkiG9w0BAQUFADBnMRMwEQYKCZImiZPyLGQB
GRYDb3JnMRYwFAYKCZImiZPyLGQBGRYGbXBsYW5lMQwwCgYDVQQKDANQS0kxEzAR
BgNVBAsMClNpZ25pbmctQ0ExFTATBgNVBAMMDFNpZ25pbmctQ0EtMTAeFw0xNDA5
MDgxMDIzMThaFw0xNjA5MDcxMDIzMThaMGYxEzARBgoJkiaJk/IsZAEZFgNvcmcx
FjAUBgoJkiaJk/IsZAEZFgZtcGxhbmUxDDAKBgNVBAoMA1BLSTETMBEGA1UECwwK
Q29tcG9uZW50czEUMBIGA1UEAwwLQ29tcG9uZW50LTIwgZ8wDQYJKoZIhvcNAQEB
BQADgY0AMIGJAoGBAPc3zRNQuO3CfSw7UnOPDeaDBZ0Wtb5F3z8vfI9voVaK4tVN
eKHWsou7B7vMBhbiTJdaA0+n/ItxuxHKx+glN3P7AC/vh3nH4hCtJPuRg60ouiqY
z14+7aqUN9m2Ja0iVWKruobu470m9NFsmQaN19AMHXukXSIHn5O2nyd9PnXRAgMB
AAGjfDB6MA4GA1UdDwEB/wQEAwIFoDAJBgNVHRMEAjAAMB0GA1UdJQQWMBQGCCsG
AQUFBwMEBggrBgEFBQcDAjAdBgNVHQ4EFgQUsUk0Rgtbb2OdlkaoRTHyh5vCcVgw
HwYDVR0jBBgwFoAUThdOqpHRQU+tBK0Zq1uzoBg73ZYwDQYJKoZIhvcNAQEFBQAD
ggEBAAQ/AHFZDyvW/gV0Kflf7cGgGOp3+QlNX30oQrd26ETQkVKtKguonhCm/Znw
b1UNPpUuehESbEWpVO0ncx18NhC7g+haj4ezo2OqgdF2BSZVJQFAikmHnvJ6Ljg2
d9jmSN3BwIVma8FTX3idJZDjhMsyB7hn1RniZk+GB/5QkWL6eNyG6rhq2wNb6aLR
aKaHJKClQQ9YfTMwc4yHJrDwXTrT4jRD+7JUmwk0fA1NWZm47JwzKAApmcJnWhTV
91HMd5nVOMwP4F9EBoiFlwxwex1oqI0uCmLjtfA+fsZAprg8XG2/V5+L4RWU7H0X
2zyq/dEID7ueGy+Cbt+la+AvH+g=
-----END CERTIFICATE-----
