Certificate:
    Data:
        Version: 3 (0x2)
        Serial Number: 9 (0x9)
    Signature Algorithm: sha1WithRSAEncryption
        Issuer: DC=org, DC=mplane, O=PKI, OU=Signing-CA, CN=Signing-CA-1
        Validity
            Not Before: Sep  8 10:24:59 2014 GMT
            Not After : Sep  7 10:24:59 2016 GMT
        Subject: DC=org, DC=mplane, O=PKI, OU=Components, CN=Component-5
        Subject Public Key Info:
            Public Key Algorithm: rsaEncryption
                Public-Key: (1024 bit)
                Modulus:
                    00:b5:60:af:26:6a:b9:22:dc:f7:ce:e9:d0:e0:16:
                    1b:b1:f4:6e:cf:57:bf:21:e5:f7:87:2d:95:94:ec:
                    c7:3d:be:30:ba:b7:33:13:dc:4b:81:56:90:d6:1f:
                    2e:09:0d:b7:f1:88:89:c8:e8:f7:46:6b:b8:54:7a:
                    3a:46:f0:60:88:20:03:9c:07:ba:ab:37:24:50:1e:
                    35:6d:e9:57:e3:b4:4a:d5:d7:64:33:ab:6c:22:6b:
                    e9:fe:fd:17:ed:34:8c:56:8f:52:88:65:74:f8:7b:
                    8b:6b:d3:b6:f1:93:6e:72:de:0a:ac:df:1e:c4:b7:
                    46:69:f9:90:6e:1c:64:6e:93
                Exponent: 65537 (0x10001)
        X509v3 extensions:
            X509v3 Key Usage: critical
                Digital Signature, Key Encipherment
            X509v3 Basic Constraints: 
                CA:FALSE
            X509v3 Extended Key Usage: 
                E-mail Protection, TLS Web Client Authentication
            X509v3 Subject Key Identifier: 
                C7:16:34:AF:88:0B:80:14:D4:89:4D:AD:28:4C:18:CC:E5:1C:90:FF
            X509v3 Authority Key Identifier: 
                keyid:4E:17:4E:AA:91:D1:41:4F:AD:04:AD:19:AB:5B:B3:A0:18:3B:DD:96

    Signature Algorithm: sha1WithRSAEncryption
         98:06:c9:cf:06:10:9d:67:59:1b:3f:45:7d:4e:cf:e9:c7:bc:
         7b:bd:79:b7:20:96:10:fd:5f:0c:04:7a:18:22:8e:47:0d:a0:
         c8:1c:5f:b0:a8:31:ba:d5:5b:62:4c:46:51:db:98:72:c4:26:
         42:ef:e9:da:53:46:38:2a:d8:32:67:6e:f8:92:ed:a2:e2:a5:
         8e:34:4b:64:bd:91:c8:0c:63:d1:4e:fd:e0:5d:d1:78:2e:ae:
         b6:b0:d9:b4:59:c6:22:9a:d6:48:79:b8:29:f5:5f:af:d5:79:
         76:70:d7:ab:d8:44:11:7f:b2:65:63:17:62:df:9c:8c:00:1d:
         e5:4c:ac:49:c0:96:48:23:7b:ee:f5:ca:4f:71:20:ba:03:df:
         2d:f3:56:6c:89:33:8d:27:db:3b:e8:5d:3e:c0:13:9e:87:08:
         8f:25:c0:07:7f:0c:74:3e:54:78:c8:80:9c:d9:83:ca:cb:90:
         5e:5e:de:05:d8:57:e2:02:f4:f7:0c:c7:d0:9b:ae:48:7a:bd:
         df:f1:f0:19:9c:74:47:35:b0:ae:f5:bc:8d:d7:92:59:57:8a:
         15:ec:5e:9c:f6:c2:82:89:ff:ee:0c:77:60:f2:76:98:2c:d6:
         db:b3:98:7d:68:88:d6:c6:99:8b:87:a9:16:53:63:16:b3:ad:
         4b:cc:f3:80
-----BEGIN CERTIFICATE-----
MIIDQDCCAiigAwIBAgIBCTANBgkqhkiG9w0BAQUFADBnMRMwEQYKCZImiZPyLGQB
GRYDb3JnMRYwFAYKCZImiZPyLGQBGRYGbXBsYW5lMQwwCgYDVQQKDANQS0kxEzAR
BgNVBAsMClNpZ25pbmctQ0ExFTATBgNVBAMMDFNpZ25pbmctQ0EtMTAeFw0xNDA5
MDgxMDI0NTlaFw0xNjA5MDcxMDI0NTlaMGYxEzARBgoJkiaJk/IsZAEZFgNvcmcx
FjAUBgoJkiaJk/IsZAEZFgZtcGxhbmUxDDAKBgNVBAoMA1BLSTETMBEGA1UECwwK
Q29tcG9uZW50czEUMBIGA1UEAwwLQ29tcG9uZW50LTUwgZ8wDQYJKoZIhvcNAQEB
BQADgY0AMIGJAoGBALVgryZquSLc987p0OAWG7H0bs9XvyHl94ctlZTsxz2+MLq3
MxPcS4FWkNYfLgkNt/GIicjo90ZruFR6OkbwYIggA5wHuqs3JFAeNW3pV+O0StXX
ZDOrbCJr6f79F+00jFaPUohldPh7i2vTtvGTbnLeCqzfHsS3Rmn5kG4cZG6TAgMB
AAGjfDB6MA4GA1UdDwEB/wQEAwIFoDAJBgNVHRMEAjAAMB0GA1UdJQQWMBQGCCsG
AQUFBwMEBggrBgEFBQcDAjAdBgNVHQ4EFgQUxxY0r4gLgBTUiU2tKEwYzOUckP8w
HwYDVR0jBBgwFoAUThdOqpHRQU+tBK0Zq1uzoBg73ZYwDQYJKoZIhvcNAQEFBQAD
ggEBAJgGyc8GEJ1nWRs/RX1Oz+nHvHu9ebcglhD9XwwEehgijkcNoMgcX7CoMbrV
W2JMRlHbmHLEJkLv6dpTRjgq2DJnbviS7aLipY40S2S9kcgMY9FO/eBd0Xgurraw
2bRZxiKa1kh5uCn1X6/VeXZw16vYRBF/smVjF2LfnIwAHeVMrEnAlkgje+71yk9x
ILoD3y3zVmyJM40n2zvoXT7AE56HCI8lwAd/DHQ+VHjIgJzZg8rLkF5e3gXYV+IC
9PcMx9Cbrkh6vd/x8BmcdEc1sK71vI3XkllXihXsXpz2woKJ/+4Md2Dydpgs1tuz
mH1oiNbGmYuHqRZTYxazrUvM84A=
-----END CERTIFICATE-----
