Certificate:
    Data:
        Version: 3 (0x2)
        Serial Number: 13 (0xd)
    Signature Algorithm: sha1WithRSAEncryption
        Issuer: DC=org, DC=mplane, O=PKI, OU=Signing-CA, CN=Signing-CA-1
        Validity
            Not Before: Sep  8 10:26:54 2014 GMT
            Not After : Sep  7 10:26:54 2016 GMT
        Subject: DC=org, DC=mplane, O=PKI, OU=Components, CN=Component-9
        Subject Public Key Info:
            Public Key Algorithm: rsaEncryption
                Public-Key: (1024 bit)
                Modulus:
                    00:a4:6f:2d:9d:69:05:4e:03:16:b4:0a:e7:ac:ba:
                    1d:0a:04:4c:d8:8e:65:47:44:aa:8c:d8:7b:76:b2:
                    ed:ff:49:bd:18:37:1f:4e:d5:90:8b:c6:0e:20:10:
                    e8:ed:88:d6:de:eb:5d:b9:24:6a:1e:9b:4c:81:15:
                    93:ba:3d:d4:a0:34:ca:b8:1f:1f:4e:10:35:f7:72:
                    f7:c2:ad:44:cc:8b:fc:13:da:1e:aa:11:20:93:71:
                    ed:c8:a0:ce:ff:31:8b:e2:0a:a0:c1:be:86:82:ac:
                    6a:0f:1b:64:5d:2f:bd:00:ee:25:d6:4f:f1:eb:68:
                    24:6f:cd:4d:ed:37:53:8c:8f
                Exponent: 65537 (0x10001)
        X509v3 extensions:
            X509v3 Key Usage: critical
                Digital Signature, Key Encipherment
            X509v3 Basic Constraints: 
                CA:FALSE
            X509v3 Extended Key Usage: 
                E-mail Protection, TLS Web Client Authentication
            X509v3 Subject Key Identifier: 
                77:D5:AC:91:EE:6F:3D:B2:61:23:D8:D4:86:08:55:4B:04:59:DB:A1
            X509v3 Authority Key Identifier: 
                keyid:4E:17:4E:AA:91:D1:41:4F:AD:04:AD:19:AB:5B:B3:A0:18:3B:DD:96

    Signature Algorithm: sha1WithRSAEncryption
         4c:8d:e8:61:85:db:8a:2a:97:87:5d:57:85:5b:80:a8:0e:54:
         02:cb:63:34:2a:94:73:cf:a3:8f:f6:df:18:ce:6f:9c:43:36:
         72:c1:75:cc:ad:95:cd:e0:f7:2a:9d:34:16:11:b0:fe:e2:65:
         36:46:0e:53:02:79:2a:bf:3f:52:88:38:3b:ca:51:ab:25:f3:
         bd:35:db:d8:0b:74:96:67:54:a6:b1:b4:69:bf:99:3e:16:37:
         1b:c7:2a:57:a0:98:fb:d7:41:1f:1d:40:15:0d:d2:7e:8c:f8:
         e6:fc:b3:d2:7a:f1:9c:3d:fa:aa:5c:19:eb:0c:a2:7c:9d:8e:
         72:ab:72:cc:ee:b3:69:da:54:78:d7:d3:e4:e6:c3:f8:64:e7:
         7f:c4:f2:31:d6:c8:f8:c9:c1:70:f8:38:75:06:41:86:fd:0d:
         b5:43:7c:d4:54:01:e4:e6:44:89:a7:53:3a:e8:65:4a:0a:db:
         52:32:8c:d0:d3:1f:22:7b:73:d0:9a:2c:c1:24:46:4b:53:f4:
         ae:c5:e0:c0:21:4f:13:3b:4b:f4:69:9f:5a:21:38:ad:91:ba:
         a6:5b:5b:e1:0e:52:49:df:8d:93:f3:4a:83:07:ac:8b:9b:0f:
         69:d9:7a:11:bb:fe:7a:f5:47:14:8a:0d:89:5c:b2:b5:7f:de:
         13:2b:68:ba
-----BEGIN CERTIFICATE-----
MIIDQDCCAiigAwIBAgIBDTANBgkqhkiG9w0BAQUFADBnMRMwEQYKCZImiZPyLGQB
GRYDb3JnMRYwFAYKCZImiZPyLGQBGRYGbXBsYW5lMQwwCgYDVQQKDANQS0kxEzAR
BgNVBAsMClNpZ25pbmctQ0ExFTATBgNVBAMMDFNpZ25pbmctQ0EtMTAeFw0xNDA5
MDgxMDI2NTRaFw0xNjA5MDcxMDI2NTRaMGYxEzARBgoJkiaJk/IsZAEZFgNvcmcx
FjAUBgoJkiaJk/IsZAEZFgZtcGxhbmUxDDAKBgNVBAoMA1BLSTETMBEGA1UECwwK
Q29tcG9uZW50czEUMBIGA1UEAwwLQ29tcG9uZW50LTkwgZ8wDQYJKoZIhvcNAQEB
BQADgY0AMIGJAoGBAKRvLZ1pBU4DFrQK56y6HQoETNiOZUdEqozYe3ay7f9JvRg3
H07VkIvGDiAQ6O2I1t7rXbkkah6bTIEVk7o91KA0yrgfH04QNfdy98KtRMyL/BPa
HqoRIJNx7cigzv8xi+IKoMG+hoKsag8bZF0vvQDuJdZP8etoJG/NTe03U4yPAgMB
AAGjfDB6MA4GA1UdDwEB/wQEAwIFoDAJBgNVHRMEAjAAMB0GA1UdJQQWMBQGCCsG
AQUFBwMEBggrBgEFBQcDAjAdBgNVHQ4EFgQUd9Wske5vPbJhI9jUhghVSwRZ26Ew
HwYDVR0jBBgwFoAUThdOqpHRQU+tBK0Zq1uzoBg73ZYwDQYJKoZIhvcNAQEFBQAD
ggEBAEyN6GGF24oql4ddV4VbgKgOVALLYzQqlHPPo4/23xjOb5xDNnLBdcytlc3g
9yqdNBYRsP7iZTZGDlMCeSq/P1KIODvKUasl870129gLdJZnVKaxtGm/mT4WNxvH
KlegmPvXQR8dQBUN0n6M+Ob8s9J68Zw9+qpcGesMonydjnKrcszus2naVHjX0+Tm
w/hk53/E8jHWyPjJwXD4OHUGQYb9DbVDfNRUAeTmRImnUzroZUoK21IyjNDTHyJ7
c9CaLMEkRktT9K7F4MAhTxM7S/Rpn1ohOK2RuqZbW+EOUknfjZPzSoMHrIubD2nZ
ehG7/nr1RxSKDYlcsrV/3hMraLo=
-----END CERTIFICATE-----
