Certificate:
    Data:
        Version: 3 (0x2)
        Serial Number: 12 (0xc)
    Signature Algorithm: sha1WithRSAEncryption
        Issuer: DC=org, DC=mplane, O=PKI, OU=Signing-CA, CN=Signing-CA-1
        Validity
            Not Before: Sep  8 10:26:24 2014 GMT
            Not After : Sep  7 10:26:24 2016 GMT
        Subject: DC=org, DC=mplane, O=PKI, OU=Components, CN=Component-8
        Subject Public Key Info:
            Public Key Algorithm: rsaEncryption
                Public-Key: (1024 bit)
                Modulus:
                    00:a8:09:f8:67:95:51:6c:cc:77:1d:a8:3c:65:de:
                    57:46:e2:ff:4b:4d:1d:5c:74:18:6a:36:2f:9d:97:
                    57:b3:ab:e9:49:4d:a8:93:0e:9d:b3:15:1f:a8:83:
                    cf:18:e0:c9:9f:0a:58:61:5d:ae:34:02:b3:20:3e:
                    99:cb:6b:9f:2b:fc:8b:29:4f:f0:e8:b8:fe:48:b4:
                    98:25:e4:70:b7:21:02:8b:5f:18:9b:a0:f8:e1:5b:
                    f8:bf:38:22:ac:9c:5e:5b:f3:36:a9:e6:9d:b6:2a:
                    de:a3:97:7a:25:ce:f9:f8:89:f3:6b:08:a5:b4:1e:
                    18:6e:5d:9a:0d:28:a0:a9:93
                Exponent: 65537 (0x10001)
        X509v3 extensions:
            X509v3 Key Usage: critical
                Digital Signature, Key Encipherment
            X509v3 Basic Constraints: 
                CA:FALSE
            X509v3 Extended Key Usage: 
                E-mail Protection, TLS Web Client Authentication
            X509v3 Subject Key Identifier: 
                BD:32:BC:4A:22:12:20:F0:3B:6A:F5:89:9F:4E:9B:84:4B:58:2B:8A
            X509v3 Authority Key Identifier: 
                keyid:4E:17:4E:AA:91:D1:41:4F:AD:04:AD:19:AB:5B:B3:A0:18:3B:DD:96

    Signature Algorithm: sha1WithRSAEncryption
         74:66:f2:02:80:10:99:a2:08:0c:27:06:0f:62:a2:b5:0b:08:
         c8:34:8e:53:20:b2:33:56:cd:f9:8f:0c:5b:d2:f1:55:ca:41:
         18:fe:a4:c3:a8:fa:99:bd:74:7c:c4:e7:f2:67:61:e0:b2:89:
         d7:4c:84:7f:67:eb:13:c0:da:3d:5b:5d:c5:d2:c4:91:04:f2:
         e0:ba:f5:7c:7a:93:ad:ac:ad:03:e4:a1:d4:16:4d:11:95:dd:
         c6:5f:fe:00:c4:f5:44:34:1b:eb:fe:bf:bf:ae:f6:0f:e5:a8:
         bc:1e:26:d4:e7:4e:78:99:fe:5b:ba:85:40:6c:51:f2:23:08:
         f4:d2:96:6c:0a:9c:d2:2b:cd:88:93:5a:09:b4:4f:0b:f4:f1:
         2a:16:c2:8f:f2:60:3d:b3:b5:1b:70:ec:47:6f:39:30:1d:3a:
         bf:03:eb:df:31:87:0e:3e:6f:88:66:06:4c:65:2c:7a:20:b1:
         36:5d:85:68:52:89:df:9a:be:ae:c1:00:89:a0:f5:08:5b:87:
         15:d4:74:a4:e1:80:6a:e7:61:4b:f2:19:18:be:6c:f7:a5:18:
         db:a3:c6:ec:2d:90:3b:5c:fd:72:da:ee:18:c0:4a:6e:58:df:
         ca:ac:ea:bd:9f:ee:21:0a:12:93:9f:88:ce:3c:ba:e0:6d:4b:
         16:fd:f5:95
-----BEGIN CERTIFICATE-----
MIIDQDCCAiigAwIBAgIBDDANBgkqhkiG9w0BAQUFADBnMRMwEQYKCZImiZPyLGQB
GRYDb3JnMRYwFAYKCZImiZPyLGQBGRYGbXBsYW5lMQwwCgYDVQQKDANQS0kxEzAR
BgNVBAsMClNpZ25pbmctQ0ExFTATBgNVBAMMDFNpZ25pbmctQ0EtMTAeFw0xNDA5
MDgxMDI2MjRaFw0xNjA5MDcxMDI2MjRaMGYxEzARBgoJkiaJk/IsZAEZFgNvcmcx
FjAUBgoJkiaJk/IsZAEZFgZtcGxhbmUxDDAKBgNVBAoMA1BLSTETMBEGA1UECwwK
Q29tcG9uZW50czEUMBIGA1UEAwwLQ29tcG9uZW50LTgwgZ8wDQYJKoZIhvcNAQEB
BQADgY0AMIGJAoGBAKgJ+GeVUWzMdx2oPGXeV0bi/0tNHVx0GGo2L52XV7Or6UlN
qJMOnbMVH6iDzxjgyZ8KWGFdrjQCsyA+mctrnyv8iylP8Oi4/ki0mCXkcLchAotf
GJug+OFb+L84IqycXlvzNqnmnbYq3qOXeiXO+fiJ82sIpbQeGG5dmg0ooKmTAgMB
AAGjfDB6MA4GA1UdDwEB/wQEAwIFoDAJBgNVHRMEAjAAMB0GA1UdJQQWMBQGCCsG
AQUFBwMEBggrBgEFBQcDAjAdBgNVHQ4EFgQUvTK8SiISIPA7avWJn06bhEtYK4ow
HwYDVR0jBBgwFoAUThdOqpHRQU+tBK0Zq1uzoBg73ZYwDQYJKoZIhvcNAQEFBQAD
ggEBAHRm8gKAEJmiCAwnBg9iorULCMg0jlMgsjNWzfmPDFvS8VXKQRj+pMOo+pm9
dHzE5/JnYeCyiddMhH9n6xPA2j1bXcXSxJEE8uC69Xx6k62srQPkodQWTRGV3cZf
/gDE9UQ0G+v+v7+u9g/lqLweJtTnTniZ/lu6hUBsUfIjCPTSlmwKnNIrzYiTWgm0
Twv08SoWwo/yYD2ztRtw7EdvOTAdOr8D698xhw4+b4hmBkxlLHogsTZdhWhSid+a
vq7BAImg9QhbhxXUdKThgGrnYUvyGRi+bPelGNujxuwtkDtc/XLa7hjASm5Y38qs
6r2f7iEKEpOfiM48uuBtSxb99ZU=
-----END CERTIFICATE-----
