Certificate:
    Data:
        Version: 3 (0x2)
        Serial Number: 10 (0xa)
    Signature Algorithm: sha1WithRSAEncryption
        Issuer: DC=org, DC=mplane, O=PKI, OU=Signing-CA, CN=Signing-CA-1
        Validity
            Not Before: Sep  8 10:25:32 2014 GMT
            Not After : Sep  7 10:25:32 2016 GMT
        Subject: DC=org, DC=mplane, O=PKI, OU=Components, CN=Component-6
        Subject Public Key Info:
            Public Key Algorithm: rsaEncryption
                Public-Key: (1024 bit)
                Modulus:
                    00:c3:14:da:a1:8b:32:48:93:b6:ab:92:d4:e1:95:
                    f5:3b:a8:2d:0f:8c:4a:5a:01:14:63:ea:12:af:b7:
                    9a:ba:08:5f:a9:00:e9:f6:06:56:69:b3:f0:25:ef:
                    bf:af:fa:d7:5d:ac:ab:2f:f2:43:5f:69:f5:91:a2:
                    a4:95:b3:3c:03:fa:ea:32:15:8e:e1:dc:25:1c:90:
                    80:32:e7:0e:e5:1b:5d:24:5b:43:8b:69:2d:92:ea:
                    0a:3a:62:a5:ab:34:49:65:fb:fb:51:c1:d3:e1:81:
                    bb:45:4f:27:8e:d5:a4:d9:a1:74:43:44:86:27:67:
                    d6:3a:e0:7b:62:a7:77:29:bf
                Exponent: 65537 (0x10001)
        X509v3 extensions:
            X509v3 Key Usage: critical
                Digital Signature, Key Encipherment
            X509v3 Basic Constraints: 
                CA:FALSE
            X509v3 Extended Key Usage: 
                E-mail Protection, TLS Web Client Authentication
            X509v3 Subject Key Identifier: 
                E1:EB:DE:81:C9:88:F8:FD:E2:2F:A3:AC:82:78:E8:12:1E:BB:18:0C
            X509v3 Authority Key Identifier: 
                keyid:4E:17:4E:AA:91:D1:41:4F:AD:04:AD:19:AB:5B:B3:A0:18:3B:DD:96

    Signature Algorithm: sha1WithRSAEncryption
         71:70:4c:6c:24:fb:2b:e4:9d:f3:b1:ed:16:c6:fc:93:0b:01:
         7f:b4:67:42:bb:44:55:07:17:97:b6:66:8e:bb:ed:c7:d2:ef:
         00:b4:27:12:c5:5f:63:a1:2c:71:d3:37:6a:18:65:a2:46:98:
         04:6b:de:73:24:83:53:14:60:a4:07:35:44:e6:92:9d:03:16:
         17:f5:22:02:0c:07:0b:48:69:e2:d7:99:d9:d2:3b:d5:3c:ea:
         fb:bc:6e:eb:b0:24:c6:7c:bd:76:10:3a:67:c6:9e:a1:29:ce:
         60:77:ea:ad:15:91:fb:2c:68:9e:be:8e:a4:94:8d:c7:1f:0e:
         14:ec:17:0e:ae:09:81:5e:89:87:e2:bd:9b:84:e4:95:4d:f4:
         57:7f:b5:89:7d:12:eb:3f:59:f7:19:3a:5c:12:e0:fb:a2:bd:
         55:59:0d:f2:c9:b0:41:d2:4c:58:dd:6a:00:78:de:fd:dc:44:
         0d:96:d2:6e:b9:5c:51:ee:dd:f7:07:92:ed:27:ad:f3:4a:d2:
         e9:e3:12:5b:84:91:57:af:97:e9:e3:de:d4:70:f9:ac:18:2d:
         70:88:c7:27:b9:b9:d8:a6:36:f6:44:27:43:a3:c8:33:b2:05:
         13:c6:17:ac:da:dc:09:34:0a:4c:63:b5:58:94:ff:c3:2f:6b:
         0d:fe:91:eb
-----BEGIN CERTIFICATE-----
MIIDQDCCAiigAwIBAgIBCjANBgkqhkiG9w0BAQUFADBnMRMwEQYKCZImiZPyLGQB
GRYDb3JnMRYwFAYKCZImiZPyLGQBGRYGbXBsYW5lMQwwCgYDVQQKDANQS0kxEzAR
BgNVBAsMClNpZ25pbmctQ0ExFTATBgNVBAMMDFNpZ25pbmctQ0EtMTAeFw0xNDA5
MDgxMDI1MzJaFw0xNjA5MDcxMDI1MzJaMGYxEzARBgoJkiaJk/IsZAEZFgNvcmcx
FjAUBgoJkiaJk/IsZAEZFgZtcGxhbmUxDDAKBgNVBAoMA1BLSTETMBEGA1UECwwK
Q29tcG9uZW50czEUMBIGA1UEAwwLQ29tcG9uZW50LTYwgZ8wDQYJKoZIhvcNAQEB
BQADgY0AMIGJAoGBAMMU2qGLMkiTtquS1OGV9TuoLQ+MSloBFGPqEq+3mroIX6kA
6fYGVmmz8CXvv6/6112sqy/yQ19p9ZGipJWzPAP66jIVjuHcJRyQgDLnDuUbXSRb
Q4tpLZLqCjpipas0SWX7+1HB0+GBu0VPJ47VpNmhdENEhidn1jrge2Kndym/AgMB
AAGjfDB6MA4GA1UdDwEB/wQEAwIFoDAJBgNVHRMEAjAAMB0GA1UdJQQWMBQGCCsG
AQUFBwMEBggrBgEFBQcDAjAdBgNVHQ4EFgQU4evegcmI+P3iL6OsgnjoEh67GAww
HwYDVR0jBBgwFoAUThdOqpHRQU+tBK0Zq1uzoBg73ZYwDQYJKoZIhvcNAQEFBQAD
ggEBAHFwTGwk+yvknfOx7RbG/JMLAX+0Z0K7RFUHF5e2Zo677cfS7wC0JxLFX2Oh
LHHTN2oYZaJGmARr3nMkg1MUYKQHNUTmkp0DFhf1IgIMBwtIaeLXmdnSO9U86vu8
buuwJMZ8vXYQOmfGnqEpzmB36q0VkfssaJ6+jqSUjccfDhTsFw6uCYFeiYfivZuE
5JVN9Fd/tYl9Eus/WfcZOlwS4PuivVVZDfLJsEHSTFjdagB43v3cRA2W0m65XFHu
3fcHku0nrfNK0unjEluEkVevl+nj3tRw+awYLXCIxye5udimNvZEJ0OjyDOyBRPG
F6za3Ak0CkxjtViU/8Mvaw3+kes=
-----END CERTIFICATE-----
