Certificate:
    Data:
        Version: 3 (0x2)
        Serial Number: 8 (0x8)
    Signature Algorithm: sha1WithRSAEncryption
        Issuer: DC=org, DC=mplane, O=PKI, OU=Signing-CA, CN=Signing-CA-1
        Validity
            Not Before: Sep  8 10:24:25 2014 GMT
            Not After : Sep  7 10:24:25 2016 GMT
        Subject: DC=org, DC=mplane, O=PKI, OU=Components, CN=Component-4
        Subject Public Key Info:
            Public Key Algorithm: rsaEncryption
                Public-Key: (1024 bit)
                Modulus:
                    00:d6:dd:2e:de:9d:b1:2f:6a:53:87:ae:1c:a5:85:
                    8d:ca:98:d2:76:01:04:95:58:df:2d:5d:d8:96:d1:
                    48:a6:fd:67:3c:b2:74:36:1b:a7:f6:94:26:ec:9c:
                    3c:73:06:bd:f0:4b:17:9c:72:02:81:75:4f:de:f5:
                    53:67:10:37:a4:13:7c:dd:8f:6e:2b:87:3f:a4:82:
                    03:28:9b:3e:cc:7e:01:41:ea:ad:a8:b2:07:de:55:
                    0a:3d:61:21:22:de:ec:91:dd:a8:cf:50:06:38:4e:
                    ca:14:0b:76:f4:2f:68:ae:6e:05:1d:ca:fc:7c:22:
                    4d:8d:19:ac:82:85:19:ba:37
                Exponent: 65537 (0x10001)
        X509v3 extensions:
            X509v3 Key Usage: critical
                Digital Signature, Key Encipherment
            X509v3 Basic Constraints: 
                CA:FALSE
            X509v3 Extended Key Usage: 
                E-mail Protection, TLS Web Client Authentication
            X509v3 Subject Key Identifier: 
                81:56:74:8E:65:AD:A6:E6:D3:6E:9A:4C:B2:6B:CD:F2:75:4A:B6:CF
            X509v3 Authority Key Identifier: 
                keyid:4E:17:4E:AA:91:D1:41:4F:AD:04:AD:19:AB:5B:B3:A0:18:3B:DD:96

    Signature Algorithm: sha1WithRSAEncryption
         0f:be:32:ae:b3:a8:57:02:ec:77:f5:68:4b:bb:f3:10:e7:67:
         3c:8c:31:e1:5a:fa:ba:d7:2d:00:eb:31:3a:99:32:1c:a6:d3:
         89:66:0c:7e:91:d3:ef:c7:67:20:4b:2a:17:f1:c7:43:7d:8f:
         ca:07:80:b2:39:f0:1e:90:c1:c5:76:89:91:2f:2c:e4:f7:8c:
         74:1c:93:bf:bc:6e:ab:e0:c1:6a:88:8b:a0:74:17:55:37:49:
         e5:cf:2e:6d:38:75:e2:11:a7:95:bb:6e:f0:f0:0b:e2:4a:d5:
         8d:12:6a:37:69:9c:31:ec:ef:64:9e:7b:bb:14:dd:03:aa:a8:
         d0:20:33:cc:b0:e1:3b:6b:46:13:3e:18:e0:da:15:52:08:df:
         d8:55:8a:7d:2d:23:6e:85:53:8a:18:0e:d4:55:b3:0f:9e:d7:
         d0:70:c1:e2:68:a2:62:5f:cf:0d:bd:9d:41:aa:88:7b:61:93:
         48:c2:bd:3e:17:9d:98:21:6f:ba:8b:ac:4e:ab:9f:6a:78:9b:
         38:b7:f8:70:9a:e5:8b:0d:6c:0e:8b:83:6c:ab:73:21:15:4a:
         6d:28:5e:cb:22:f6:87:0e:e7:72:f2:2f:27:33:ce:35:5d:11:
         7c:ae:26:2a:41:22:a7:8e:3c:63:a1:de:80:a3:04:30:06:7c:
         9e:20:7a:4e
-----BEGIN CERTIFICATE-----
MIIDQDCCAiigAwIBAgIBCDANBgkqhkiG9w0BAQUFADBnMRMwEQYKCZImiZPyLGQB
GRYDb3JnMRYwFAYKCZImiZPyLGQBGRYGbXBsYW5lMQwwCgYDVQQKDANQS0kxEzAR
BgNVBAsMClNpZ25pbmctQ0ExFTATBgNVBAMMDFNpZ25pbmctQ0EtMTAeFw0xNDA5
MDgxMDI0MjVaFw0xNjA5MDcxMDI0MjVaMGYxEzARBgoJkiaJk/IsZAEZFgNvcmcx
FjAUBgoJkiaJk/IsZAEZFgZtcGxhbmUxDDAKBgNVBAoMA1BLSTETMBEGA1UECwwK
Q29tcG9uZW50czEUMBIGA1UEAwwLQ29tcG9uZW50LTQwgZ8wDQYJKoZIhvcNAQEB
BQADgY0AMIGJAoGBANbdLt6dsS9qU4euHKWFjcqY0nYBBJVY3y1d2JbRSKb9Zzyy
dDYbp/aUJuycPHMGvfBLF5xyAoF1T971U2cQN6QTfN2PbiuHP6SCAyibPsx+AUHq
raiyB95VCj1hISLe7JHdqM9QBjhOyhQLdvQvaK5uBR3K/HwiTY0ZrIKFGbo3AgMB
AAGjfDB6MA4GA1UdDwEB/wQEAwIFoDAJBgNVHRMEAjAAMB0GA1UdJQQWMBQGCCsG
AQUFBwMEBggrBgEFBQcDAjAdBgNVHQ4EFgQUgVZ0jmWtpubTbppMsmvN8nVKts8w
HwYDVR0jBBgwFoAUThdOqpHRQU+tBK0Zq1uzoBg73ZYwDQYJKoZIhvcNAQEFBQAD
ggEBAA++Mq6zqFcC7Hf1aEu78xDnZzyMMeFa+rrXLQDrMTqZMhym04lmDH6R0+/H
ZyBLKhfxx0N9j8oHgLI58B6QwcV2iZEvLOT3jHQck7+8bqvgwWqIi6B0F1U3SeXP
Lm04deIRp5W7bvDwC+JK1Y0SajdpnDHs72See7sU3QOqqNAgM8yw4TtrRhM+GODa
FVII39hVin0tI26FU4oYDtRVsw+e19BwweJoomJfzw29nUGqiHthk0jCvT4XnZgh
b7qLrE6rn2p4mzi3+HCa5YsNbA6Lg2yrcyEVSm0oXssi9ocO53LyLyczzjVdEXyu
JipBIqeOPGOh3oCjBDAGfJ4gek4=
-----END CERTIFICATE-----
