Certificate:
    Data:
        Version: 3 (0x2)
        Serial Number: 2 (0x2)
    Signature Algorithm: sha1WithRSAEncryption
        Issuer: DC=org, DC=mplane, O=PKI, OU=Signing-CA, CN=Signing-CA-1
        Validity
            Not Before: Sep  8 09:53:56 2014 GMT
            Not After : Sep  7 09:53:56 2016 GMT
        Subject: DC=org, DC=mplane, O=PKI, OU=Supervisors, CN=Supervisor-1
        Subject Public Key Info:
            Public Key Algorithm: rsaEncryption
                Public-Key: (2048 bit)
                Modulus:
                    00:c4:0b:ad:d4:38:43:d3:4c:69:ad:df:82:6c:7d:
                    d6:7c:a9:7f:bc:1e:7a:9d:b2:ae:62:dd:92:46:a8:
                    7c:ff:bf:12:c7:eb:95:12:94:3e:7a:d4:64:94:7d:
                    b2:da:59:55:44:7e:66:a8:ed:f1:96:7f:75:20:3b:
                    7a:58:8c:d4:33:5b:ba:ee:14:5b:f7:c0:31:d2:62:
                    c0:10:bd:de:98:22:6d:7f:c7:80:83:9a:1a:30:28:
                    c0:1a:3e:a7:1f:29:1d:9e:34:03:44:0a:fe:85:a1:
                    12:6d:27:2e:4d:8d:04:19:7c:1d:bd:ff:1e:31:dd:
                    63:58:3a:e4:b5:2f:6e:72:8c:25:56:83:94:12:e4:
                    90:81:a6:69:e0:ba:f8:d4:43:59:37:4e:38:40:26:
                    27:bd:ae:6a:f1:44:77:b1:2d:05:f4:93:34:bb:fa:
                    ea:dd:27:dd:19:ff:5b:9b:a2:aa:61:85:bc:be:f2:
                    ef:19:e9:51:fb:a9:5a:ed:97:39:d7:09:d8:39:43:
                    85:b2:a3:38:22:3b:4d:8b:44:16:23:6b:78:b4:3d:
                    58:2b:25:2b:b6:59:ba:ca:8a:62:57:38:bb:fd:75:
                    a9:85:7d:6d:00:f7:a1:32:a5:70:95:3a:d0:ad:6b:
                    6a:ab:bf:97:18:df:29:a8:f3:a1:3f:e2:80:2f:2b:
                    a0:31
                Exponent: 65537 (0x10001)
        X509v3 extensions:
            X509v3 Key Usage: critical
                Digital Signature, Key Encipherment
            X509v3 Basic Constraints: 
                CA:FALSE
            X509v3 Extended Key Usage: 
                TLS Web Server Authentication, TLS Web Client Authentication
            X509v3 Subject Key Identifier: 
                3F:78:E2:87:A1:14:5A:24:EA:E4:FF:2C:8D:02:34:E4:11:6E:46:D5
            X509v3 Authority Key Identifier: 
                keyid:4E:17:4E:AA:91:D1:41:4F:AD:04:AD:19:AB:5B:B3:A0:18:3B:DD:96

            X509v3 Subject Alternative Name: 
                DNS:mplane.org
    Signature Algorithm: sha1WithRSAEncryption
         26:8b:b0:8b:96:76:56:b4:e5:78:6c:3a:87:35:35:3e:9b:b2:
         74:82:79:99:77:41:7d:11:8d:93:c1:fc:cd:97:0b:18:a6:13:
         6d:62:c5:52:0e:97:82:98:1a:29:d4:34:8d:a6:7d:e5:5f:3b:
         c4:fa:cc:c1:0d:16:04:5b:66:b2:18:cf:2d:82:87:29:d9:2c:
         3d:11:ed:50:10:fb:84:04:8f:d7:2b:51:a5:74:27:29:16:48:
         9e:87:e6:37:0a:7b:2d:34:a3:26:03:57:3f:c6:8b:41:b8:ac:
         ac:3f:a9:2d:9c:39:d2:1f:d9:a3:00:88:0a:a0:11:6e:13:6d:
         ea:e9:9a:1c:12:50:9c:1c:d5:be:b1:77:50:da:3b:7d:25:b3:
         7d:41:13:ce:48:a3:eb:5f:8b:4d:f2:7e:22:aa:6c:b4:e6:7c:
         39:58:2f:b5:f1:ad:cf:95:cf:57:bc:7c:35:b3:85:df:04:e0:
         ee:17:00:13:76:b7:5d:fa:eb:ce:cb:c2:0b:83:6f:f5:d4:ea:
         e1:8d:b8:8b:b5:0b:54:e9:f1:78:89:c8:b4:cd:5e:99:5b:77:
         72:79:4c:ad:97:57:e8:fc:9f:4c:04:49:1e:5d:70:fa:ea:f6:
         a1:61:e2:3f:af:b0:81:c3:ac:85:74:75:e8:17:53:fa:5f:6d:
         c5:59:21:b7
-----BEGIN CERTIFICATE-----
MIID3zCCAsegAwIBAgIBAjANBgkqhkiG9w0BAQUFADBnMRMwEQYKCZImiZPyLGQB
GRYDb3JnMRYwFAYKCZImiZPyLGQBGRYGbXBsYW5lMQwwCgYDVQQKDANQS0kxEzAR
BgNVBAsMClNpZ25pbmctQ0ExFTATBgNVBAMMDFNpZ25pbmctQ0EtMTAeFw0xNDA5
MDgwOTUzNTZaFw0xNjA5MDcwOTUzNTZaMGgxEzARBgoJkiaJk/IsZAEZFgNvcmcx
FjAUBgoJkiaJk/IsZAEZFgZtcGxhbmUxDDAKBgNVBAoMA1BLSTEUMBIGA1UECwwL
U3VwZXJ2aXNvcnMxFTATBgNVBAMMDFN1cGVydmlzb3ItMTCCASIwDQYJKoZIhvcN
AQEBBQADggEPADCCAQoCggEBAMQLrdQ4Q9NMaa3fgmx91nypf7weep2yrmLdkkao
fP+/EsfrlRKUPnrUZJR9stpZVUR+Zqjt8ZZ/dSA7eliM1DNbuu4UW/fAMdJiwBC9
3pgibX/HgIOaGjAowBo+px8pHZ40A0QK/oWhEm0nLk2NBBl8Hb3/HjHdY1g65LUv
bnKMJVaDlBLkkIGmaeC6+NRDWTdOOEAmJ72uavFEd7EtBfSTNLv66t0n3Rn/W5ui
qmGFvL7y7xnpUfupWu2XOdcJ2DlDhbKjOCI7TYtEFiNreLQ9WCslK7ZZusqKYlc4
u/11qYV9bQD3oTKlcJU60K1raqu/lxjfKajzoT/igC8roDECAwEAAaOBlDCBkTAO
BgNVHQ8BAf8EBAMCBaAwCQYDVR0TBAIwADAdBgNVHSUEFjAUBggrBgEFBQcDAQYI
KwYBBQUHAwIwHQYDVR0OBBYEFD944oehFFok6uT/LI0CNOQRbkbVMB8GA1UdIwQY
MBaAFE4XTqqR0UFPrQStGatbs6AYO92WMBUGA1UdEQQOMAyCCm1wbGFuZS5vcmcw
DQYJKoZIhvcNAQEFBQADggEBACaLsIuWdla05XhsOoc1NT6bsnSCeZl3QX0RjZPB
/M2XCximE21ixVIOl4KYGinUNI2mfeVfO8T6zMENFgRbZrIYzy2ChynZLD0R7VAQ
+4QEj9crUaV0JykWSJ6H5jcKey00oyYDVz/Gi0G4rKw/qS2cOdIf2aMAiAqgEW4T
berpmhwSUJwc1b6xd1DaO30ls31BE85Io+tfi03yfiKqbLTmfDlYL7Xxrc+Vz1e8
fDWzhd8E4O4XABN2t136687LwguDb/XU6uGNuIu1C1Tp8XiJyLTNXplbd3J5TK2X
V+j8n0wESR5dcPrq9qFh4j+vsIHDrIV0degXU/pfbcVZIbc=
-----END CERTIFICATE-----
