Certificate:
    Data:
        Version: 3 (0x2)
        Serial Number: 4 (0x4)
    Signature Algorithm: sha1WithRSAEncryption
        Issuer: DC=org, DC=mplane, O=PKI, OU=Signing-CA, CN=Signing-CA-1
        Validity
            Not Before: Sep  8 10:20:56 2014 GMT
            Not After : Sep  7 10:20:56 2016 GMT
        Subject: DC=org, DC=mplane, O=PKI, OU=Supervisors, CN=Supervisor-3
        Subject Public Key Info:
            Public Key Algorithm: rsaEncryption
                Public-Key: (2048 bit)
                Modulus:
                    00:c8:44:42:4e:d0:87:51:01:91:40:45:e3:e7:50:
                    ef:62:5d:02:67:d9:52:aa:f7:b9:c7:97:bc:74:ce:
                    3d:29:f8:4a:cf:74:75:da:3b:c4:35:9e:06:2b:7e:
                    7e:a4:f2:13:ec:0a:d4:ad:54:11:e2:a0:25:f8:f7:
                    ca:bb:22:9e:d7:90:5d:dc:23:c6:f2:9e:0d:72:75:
                    e6:ad:1b:8a:b4:ff:ba:58:fa:cc:97:87:79:cc:c8:
                    ff:d7:98:9d:3e:41:89:27:c2:eb:8e:16:e6:ec:54:
                    8a:7d:2f:34:a3:f8:66:e3:af:c3:3b:91:6d:3a:26:
                    71:79:4e:98:f5:ff:d3:61:e3:dc:d6:d0:e1:34:f2:
                    bd:20:27:42:e8:a5:e9:ee:b0:dd:4b:e0:25:2c:df:
                    af:eb:6f:9c:8e:9e:48:6c:93:1c:9d:91:b4:40:5a:
                    4b:d9:8a:fc:c4:e0:b2:04:50:f7:e2:c2:00:c2:8b:
                    77:a9:66:7a:6f:69:94:90:47:52:f9:b2:1d:fc:07:
                    7e:ef:fb:41:fc:53:16:a0:b7:53:10:11:ab:da:9b:
                    cc:ab:aa:55:4c:ab:69:f6:0f:6d:4f:ec:70:6a:1d:
                    46:36:0a:f9:68:11:f5:f6:b9:b9:1c:55:21:ac:e7:
                    d5:c4:d3:59:ad:ce:0a:99:51:19:69:58:d2:28:a1:
                    4f:9d
                Exponent: 65537 (0x10001)
        X509v3 extensions:
            X509v3 Key Usage: critical
                Digital Signature, Key Encipherment
            X509v3 Basic Constraints: 
                CA:FALSE
            X509v3 Extended Key Usage: 
                TLS Web Server Authentication, TLS Web Client Authentication
            X509v3 Subject Key Identifier: 
                46:58:28:1E:DB:0C:9B:E7:73:71:97:18:E9:A6:CB:EA:FD:41:EF:24
            X509v3 Authority Key Identifier: 
                keyid:4E:17:4E:AA:91:D1:41:4F:AD:04:AD:19:AB:5B:B3:A0:18:3B:DD:96

            X509v3 Subject Alternative Name: 
                DNS:mplane.org
    Signature Algorithm: sha1WithRSAEncryption
         a0:e5:b6:07:a7:e6:5c:a2:95:ca:66:72:d6:e3:ea:6d:37:10:
         ab:e2:11:b2:2a:71:2f:d7:98:2c:82:86:d6:fd:1c:ec:d1:f9:
         8d:8a:cf:75:30:66:5b:29:de:af:d3:b2:f3:e2:d9:78:84:82:
         f7:d4:01:0e:be:2b:e5:e3:30:0d:57:25:ff:7a:bc:5e:e3:11:
         c4:90:f3:5d:7d:8f:aa:16:d2:31:b8:39:06:ee:6f:f7:f8:c7:
         0b:5a:6e:b3:35:7a:e5:07:c4:58:21:83:4a:4c:21:56:17:47:
         76:4a:bc:aa:6c:38:48:7e:be:73:c5:10:11:39:33:2e:03:7f:
         99:11:25:4e:2e:9f:3d:50:7d:c3:3f:56:39:c1:35:7e:1e:86:
         e3:21:31:ae:1c:2b:a9:9a:a5:8a:1a:a5:c1:3e:99:c5:5a:1d:
         df:8e:e5:67:ef:4e:65:a7:f0:70:19:3a:82:ca:56:ec:bc:53:
         27:f2:02:6e:56:b2:3f:04:98:64:82:72:68:91:84:87:ea:16:
         9c:8a:aa:19:a7:47:58:62:17:43:ef:dd:12:20:12:35:c8:d0:
         7f:38:47:ef:95:59:e4:a0:98:62:65:64:c7:d8:33:65:88:41:
         9b:4d:2a:74:b1:fd:fe:fa:67:df:ea:d4:6e:15:2f:6a:c1:37:
         6b:ed:69:a9
-----BEGIN CERTIFICATE-----
MIID3zCCAsegAwIBAgIBBDANBgkqhkiG9w0BAQUFADBnMRMwEQYKCZImiZPyLGQB
GRYDb3JnMRYwFAYKCZImiZPyLGQBGRYGbXBsYW5lMQwwCgYDVQQKDANQS0kxEzAR
BgNVBAsMClNpZ25pbmctQ0ExFTATBgNVBAMMDFNpZ25pbmctQ0EtMTAeFw0xNDA5
MDgxMDIwNTZaFw0xNjA5MDcxMDIwNTZaMGgxEzARBgoJkiaJk/IsZAEZFgNvcmcx
FjAUBgoJkiaJk/IsZAEZFgZtcGxhbmUxDDAKBgNVBAoMA1BLSTEUMBIGA1UECwwL
U3VwZXJ2aXNvcnMxFTATBgNVBAMMDFN1cGVydmlzb3ItMzCCASIwDQYJKoZIhvcN
AQEBBQADggEPADCCAQoCggEBAMhEQk7Qh1EBkUBF4+dQ72JdAmfZUqr3uceXvHTO
PSn4Ss90ddo7xDWeBit+fqTyE+wK1K1UEeKgJfj3yrsinteQXdwjxvKeDXJ15q0b
irT/ulj6zJeHeczI/9eYnT5BiSfC644W5uxUin0vNKP4ZuOvwzuRbTomcXlOmPX/
02Hj3NbQ4TTyvSAnQuil6e6w3UvgJSzfr+tvnI6eSGyTHJ2RtEBaS9mK/MTgsgRQ
9+LCAMKLd6lmem9plJBHUvmyHfwHfu/7QfxTFqC3UxARq9qbzKuqVUyrafYPbU/s
cGodRjYK+WgR9fa5uRxVIazn1cTTWa3OCplRGWlY0iihT50CAwEAAaOBlDCBkTAO
BgNVHQ8BAf8EBAMCBaAwCQYDVR0TBAIwADAdBgNVHSUEFjAUBggrBgEFBQcDAQYI
KwYBBQUHAwIwHQYDVR0OBBYEFEZYKB7bDJvnc3GXGOmmy+r9Qe8kMB8GA1UdIwQY
MBaAFE4XTqqR0UFPrQStGatbs6AYO92WMBUGA1UdEQQOMAyCCm1wbGFuZS5vcmcw
DQYJKoZIhvcNAQEFBQADggEBAKDltgen5lyilcpmctbj6m03EKviEbIqcS/XmCyC
htb9HOzR+Y2Kz3UwZlsp3q/TsvPi2XiEgvfUAQ6+K+XjMA1XJf96vF7jEcSQ8119
j6oW0jG4OQbub/f4xwtabrM1euUHxFghg0pMIVYXR3ZKvKpsOEh+vnPFEBE5My4D
f5kRJU4unz1QfcM/VjnBNX4ehuMhMa4cK6mapYoapcE+mcVaHd+O5WfvTmWn8HAZ
OoLKVuy8UyfyAm5Wsj8EmGSCcmiRhIfqFpyKqhmnR1hiF0Pv3RIgEjXI0H84R++V
WeSgmGJlZMfYM2WIQZtNKnSx/f76Z9/q1G4VL2rBN2vtaak=
-----END CERTIFICATE-----
