Certificate:
    Data:
        Version: 3 (0x2)
        Serial Number: 3 (0x3)
    Signature Algorithm: sha1WithRSAEncryption
        Issuer: DC=org, DC=mplane, O=PKI, OU=Signing-CA, CN=Signing-CA-1
        Validity
            Not Before: Sep  8 10:20:07 2014 GMT
            Not After : Sep  7 10:20:07 2016 GMT
        Subject: DC=org, DC=mplane, O=PKI, OU=Supervisors, CN=Supervisor-2
        Subject Public Key Info:
            Public Key Algorithm: rsaEncryption
                Public-Key: (2048 bit)
                Modulus:
                    00:9f:26:87:7e:90:fa:39:dc:8b:2a:e1:64:3b:10:
                    14:6f:d5:41:5f:4e:3b:38:c6:ee:94:76:ec:d5:0e:
                    c0:8a:fb:b6:57:52:75:56:47:3f:95:fa:11:32:0a:
                    97:f4:f1:e9:32:6b:e1:02:1b:95:2a:5c:4e:9c:5c:
                    31:7b:7a:7c:9f:75:03:fd:9d:52:cc:13:cc:79:2e:
                    a6:88:34:9e:c2:f4:76:c1:23:e4:70:e2:df:78:68:
                    e8:f1:8b:50:2b:a1:0d:b5:d7:5d:8b:fc:b9:cb:b6:
                    62:aa:cd:b9:1b:8c:62:53:5d:2f:61:72:8d:6d:5d:
                    d6:06:a0:96:4d:f9:cb:76:65:32:d0:52:4b:ab:49:
                    37:b8:a0:d3:ba:d8:6b:b2:db:9a:83:54:54:ed:80:
                    d5:05:28:d5:d8:7d:2b:cc:88:db:33:c0:2d:dc:f6:
                    de:ee:fa:44:9d:0c:6c:2e:c9:fa:06:61:26:f8:a5:
                    9c:4a:43:6f:1c:3c:16:da:63:43:fc:7a:75:a3:43:
                    41:2a:fb:db:eb:69:63:8b:14:8a:a7:d3:55:ac:01:
                    f5:7a:e6:b4:1c:4c:45:f2:18:1d:89:3d:a6:e5:11:
                    e3:37:ab:bb:1d:66:21:ba:f3:cb:e8:c5:eb:cb:2f:
                    3c:aa:e2:b5:aa:12:df:07:cb:a6:83:a7:67:82:09:
                    78:7b
                Exponent: 65537 (0x10001)
        X509v3 extensions:
            X509v3 Key Usage: critical
                Digital Signature, Key Encipherment
            X509v3 Basic Constraints: 
                CA:FALSE
            X509v3 Extended Key Usage: 
                TLS Web Server Authentication, TLS Web Client Authentication
            X509v3 Subject Key Identifier: 
                EA:FA:80:40:D9:D2:5D:6C:0C:AE:80:A8:A9:EE:D5:9C:A2:44:64:01
            X509v3 Authority Key Identifier: 
                keyid:4E:17:4E:AA:91:D1:41:4F:AD:04:AD:19:AB:5B:B3:A0:18:3B:DD:96

            X509v3 Subject Alternative Name: 
                DNS:mplane.org
    Signature Algorithm: sha1WithRSAEncryption
         a4:77:5c:6b:2f:c6:1e:11:7e:9e:c7:c3:72:b7:3d:50:4d:d1:
         a5:b5:b8:c2:0a:66:7a:1d:9b:73:98:51:c0:1c:e6:e2:d3:f8:
         90:8c:bf:2e:1d:48:93:68:eb:8d:b2:9a:2d:b0:f2:ef:7f:8e:
         63:bf:83:48:d8:94:ff:b1:8f:01:49:62:cd:22:8c:a3:44:37:
         56:d7:4f:df:2b:b0:a1:ff:ce:24:16:c8:ab:94:06:c9:08:af:
         e6:ab:f7:3a:53:d1:ba:52:16:cf:30:6b:e4:c5:06:37:7b:a5:
         22:e9:de:44:ca:92:4c:75:cb:0c:aa:47:b8:6f:7b:af:a4:87:
         54:be:29:e7:a2:7e:62:b8:c1:a2:46:dc:17:84:c5:d4:5a:de:
         00:4d:67:aa:28:4b:bd:27:87:08:63:2e:41:3e:3a:11:bb:3b:
         3e:6e:c7:7a:85:db:80:0d:6a:df:39:eb:11:3b:81:98:7e:18:
         b2:8d:1d:e0:fb:ad:55:04:4e:d4:eb:19:c2:ee:9c:be:1d:7b:
         22:84:4f:b9:d7:af:b1:32:89:ce:f5:ad:94:b8:11:a3:e2:ad:
         92:ae:53:52:fa:6b:6d:51:fe:36:29:1b:ba:8a:01:3b:51:4e:
         9c:96:ef:da:2f:7c:39:de:b7:c0:71:91:ce:d1:3a:0f:e5:61:
         a7:6a:44:92
-----BEGIN CERTIFICATE-----
MIID3zCCAsegAwIBAgIBAzANBgkqhkiG9w0BAQUFADBnMRMwEQYKCZImiZPyLGQB
GRYDb3JnMRYwFAYKCZImiZPyLGQBGRYGbXBsYW5lMQwwCgYDVQQKDANQS0kxEzAR
BgNVBAsMClNpZ25pbmctQ0ExFTATBgNVBAMMDFNpZ25pbmctQ0EtMTAeFw0xNDA5
MDgxMDIwMDdaFw0xNjA5MDcxMDIwMDdaMGgxEzARBgoJkiaJk/IsZAEZFgNvcmcx
FjAUBgoJkiaJk/IsZAEZFgZtcGxhbmUxDDAKBgNVBAoMA1BLSTEUMBIGA1UECwwL
U3VwZXJ2aXNvcnMxFTATBgNVBAMMDFN1cGVydmlzb3ItMjCCASIwDQYJKoZIhvcN
AQEBBQADggEPADCCAQoCggEBAJ8mh36Q+jnciyrhZDsQFG/VQV9OOzjG7pR27NUO
wIr7tldSdVZHP5X6ETIKl/Tx6TJr4QIblSpcTpxcMXt6fJ91A/2dUswTzHkupog0
nsL0dsEj5HDi33ho6PGLUCuhDbXXXYv8ucu2YqrNuRuMYlNdL2FyjW1d1gaglk35
y3ZlMtBSS6tJN7ig07rYa7LbmoNUVO2A1QUo1dh9K8yI2zPALdz23u76RJ0MbC7J
+gZhJvilnEpDbxw8FtpjQ/x6daNDQSr72+tpY4sUiqfTVawB9XrmtBxMRfIYHYk9
puUR4zerux1mIbrzy+jF68svPKritaoS3wfLpoOnZ4IJeHsCAwEAAaOBlDCBkTAO
BgNVHQ8BAf8EBAMCBaAwCQYDVR0TBAIwADAdBgNVHSUEFjAUBggrBgEFBQcDAQYI
KwYBBQUHAwIwHQYDVR0OBBYEFOr6gEDZ0l1sDK6AqKnu1ZyiRGQBMB8GA1UdIwQY
MBaAFE4XTqqR0UFPrQStGatbs6AYO92WMBUGA1UdEQQOMAyCCm1wbGFuZS5vcmcw
DQYJKoZIhvcNAQEFBQADggEBAKR3XGsvxh4Rfp7Hw3K3PVBN0aW1uMIKZnodm3OY
UcAc5uLT+JCMvy4dSJNo642ymi2w8u9/jmO/g0jYlP+xjwFJYs0ijKNEN1bXT98r
sKH/ziQWyKuUBskIr+ar9zpT0bpSFs8wa+TFBjd7pSLp3kTKkkx1ywyqR7hve6+k
h1S+KeeifmK4waJG3BeExdRa3gBNZ6ooS70nhwhjLkE+OhG7Oz5ux3qF24ANat85
6xE7gZh+GLKNHeD7rVUETtTrGcLunL4deyKET7nXr7Eyic71rZS4EaPirZKuU1L6
a21R/jYpG7qKATtRTpyW79ovfDnet8Bxkc7ROg/lYadqRJI=
-----END CERTIFICATE-----
