Certificate:
    Data:
        Version: 3 (0x2)
        Serial Number: 4 (0x4)
    Signature Algorithm: sha1WithRSAEncryption
        Issuer: DC=org, DC=mplane, O=Test PKI, OU=Test Signing CA, CN=Test Signing CA
        Validity
            Not Before: Jul  8 14:20:03 2014 GMT
            Not After : Jul  7 14:20:03 2016 GMT
        Subject: DC=org, DC=mplane, O=Test PKI, OU=Test Clients, CN=client2
        Subject Public Key Info:
            Public Key Algorithm: rsaEncryption
                Public-Key: (1024 bit)
                Modulus:
                    00:ca:72:ff:5a:f4:fd:3d:6a:50:f5:88:5d:e3:39:
                    2e:b5:d5:94:0e:38:c4:06:d5:e1:c0:26:7d:25:f2:
                    f1:f9:0f:a5:f7:a3:37:5b:42:3e:2d:13:b7:e1:2d:
                    0f:2a:03:07:59:ec:fb:8e:88:90:66:4d:c0:9b:16:
                    e6:e7:6f:57:d0:5b:9a:66:96:4f:10:56:5b:63:5d:
                    9d:1d:f0:08:41:25:fa:54:e4:db:10:90:6d:8e:bc:
                    7d:5c:87:75:6d:08:91:dc:d8:6a:b7:87:60:a0:69:
                    ef:89:f8:e7:59:97:a6:ac:8c:57:db:c5:49:88:b1:
                    33:ee:55:7a:58:d2:93:fa:17
                Exponent: 65537 (0x10001)
        X509v3 extensions:
            X509v3 Key Usage: critical
                Digital Signature, Key Encipherment
            X509v3 Basic Constraints: 
                CA:FALSE
            X509v3 Extended Key Usage: 
                E-mail Protection, TLS Web Client Authentication
            X509v3 Subject Key Identifier: 
                72:8A:CE:9B:A1:87:6D:EA:C4:6D:A8:4D:20:B8:64:8A:B5:58:D0:63
            X509v3 Authority Key Identifier: 
                keyid:C4:05:E9:64:AB:83:A5:5F:74:E4:3B:20:87:69:3D:5A:D2:C6:41:A3

    Signature Algorithm: sha1WithRSAEncryption
         56:fa:a1:d2:19:f6:70:a5:90:d7:03:2c:b0:76:7e:91:41:2a:
         fe:63:a2:7b:6d:a2:6e:f3:59:6d:3a:90:b2:94:ff:3b:c0:b8:
         ad:cc:b9:6a:6d:c2:f4:e7:49:70:71:70:5a:1b:5c:4e:f2:0f:
         da:14:0c:4e:72:4a:06:e1:dd:1d:4d:50:12:03:f8:69:8b:cb:
         a1:e6:5b:9a:f9:78:4f:6e:24:d8:fa:df:5c:c9:be:8a:3e:c2:
         58:b1:cd:d2:17:6f:4e:6f:29:56:cc:26:0b:44:a1:2d:95:1d:
         f1:85:e4:5e:0e:c2:b5:b4:33:37:0f:e9:26:e0:9b:94:6c:4e:
         08:5c:85:f1:80:ab:43:74:c2:a8:2e:58:f7:1f:bc:81:79:c6:
         f7:1e:b4:73:96:ef:f4:18:c8:4f:95:e9:0a:90:a0:2b:ff:a4:
         6e:fe:11:49:28:0e:d9:cf:a5:29:9e:08:45:e1:33:0f:09:cb:
         53:9b:30:22:7d:a2:bf:da:54:ff:cf:11:d9:da:1f:8b:00:1d:
         30:f5:7c:9b:25:61:72:ea:07:6f:0d:f8:b1:5e:43:3b:b6:21:
         0f:57:50:8b:fe:64:04:89:26:c0:26:61:7c:2d:42:ca:09:74:
         98:c6:43:f6:48:da:7d:25:a2:5d:28:66:b7:5f:6d:4a:dc:b2:
         73:93:b8:d3
-----BEGIN CERTIFICATE-----
MIIDUDCCAjigAwIBAgIBBDANBgkqhkiG9w0BAQUFADB0MRMwEQYKCZImiZPyLGQB
GRYDb3JnMRYwFAYKCZImiZPyLGQBGRYGbXBsYW5lMREwDwYDVQQKDAhUZXN0IFBL
STEYMBYGA1UECwwPVGVzdCBTaWduaW5nIENBMRgwFgYDVQQDDA9UZXN0IFNpZ25p
bmcgQ0EwHhcNMTQwNzA4MTQyMDAzWhcNMTYwNzA3MTQyMDAzWjBpMRMwEQYKCZIm
iZPyLGQBGRYDb3JnMRYwFAYKCZImiZPyLGQBGRYGbXBsYW5lMREwDwYDVQQKDAhU
ZXN0IFBLSTEVMBMGA1UECwwMVGVzdCBDbGllbnRzMRAwDgYDVQQDDAdjbGllbnQy
MIGfMA0GCSqGSIb3DQEBAQUAA4GNADCBiQKBgQDKcv9a9P09alD1iF3jOS611ZQO
OMQG1eHAJn0l8vH5D6X3ozdbQj4tE7fhLQ8qAwdZ7PuOiJBmTcCbFubnb1fQW5pm
lk8QVltjXZ0d8AhBJfpU5NsQkG2OvH1ch3VtCJHc2Gq3h2Cgae+J+OdZl6asjFfb
xUmIsTPuVXpY0pP6FwIDAQABo3wwejAOBgNVHQ8BAf8EBAMCBaAwCQYDVR0TBAIw
ADAdBgNVHSUEFjAUBggrBgEFBQcDBAYIKwYBBQUHAwIwHQYDVR0OBBYEFHKKzpuh
h23qxG2oTSC4ZIq1WNBjMB8GA1UdIwQYMBaAFMQF6WSrg6VfdOQ7IIdpPVrSxkGj
MA0GCSqGSIb3DQEBBQUAA4IBAQBW+qHSGfZwpZDXAyywdn6RQSr+Y6J7baJu81lt
OpCylP87wLitzLlqbcL050lwcXBaG1xO8g/aFAxOckoG4d0dTVASA/hpi8uh5lua
+XhPbiTY+t9cyb6KPsJYsc3SF29ObylWzCYLRKEtlR3xheReDsK1tDM3D+km4JuU
bE4IXIXxgKtDdMKoLlj3H7yBecb3HrRzlu/0GMhPlekKkKAr/6Ru/hFJKA7Zz6Up
nghF4TMPCctTmzAifaK/2lT/zxHZ2h+LAB0w9XybJWFy6gdvDfixXkM7tiEPV1CL
/mQEiSbAJmF8LULKCXSYxkP2SNp9JaJdKGa3X21K3LJzk7jT
-----END CERTIFICATE-----
