Certificate:
    Data:
        Version: 3 (0x2)
        Serial Number: 3 (0x3)
    Signature Algorithm: sha1WithRSAEncryption
        Issuer: DC=org, DC=mplane, O=Test PKI, OU=Test Signing CA, CN=Test Signing CA
        Validity
            Not Before: Jul  8 14:19:26 2014 GMT
            Not After : Jul  7 14:19:26 2016 GMT
        Subject: DC=org, DC=mplane, O=Test PKI, OU=Test Clients, CN=client1
        Subject Public Key Info:
            Public Key Algorithm: rsaEncryption
                Public-Key: (1024 bit)
                Modulus:
                    00:b2:8b:31:7d:22:00:75:7d:13:ec:a1:ec:8e:71:
                    35:da:25:8f:4b:67:7f:aa:92:1e:30:fc:2b:3d:2d:
                    7a:2d:45:cb:a7:5a:7a:15:26:70:f3:b2:61:10:d6:
                    a5:01:e1:1b:7b:39:9d:a2:4e:43:8b:5a:fa:a5:c3:
                    45:d8:13:9b:b6:93:75:e1:29:2d:ed:3a:06:a7:48:
                    78:b9:68:fc:24:6d:1e:c7:37:76:e2:da:e2:b9:ba:
                    6a:d4:30:d4:c6:9a:30:19:2a:cb:ea:27:82:75:a0:
                    d2:f6:0c:87:e5:95:51:f3:d7:d8:1f:be:0e:38:2e:
                    ed:53:cf:a0:f6:2d:be:91:bb
                Exponent: 65537 (0x10001)
        X509v3 extensions:
            X509v3 Key Usage: critical
                Digital Signature, Key Encipherment
            X509v3 Basic Constraints: 
                CA:FALSE
            X509v3 Extended Key Usage: 
                E-mail Protection, TLS Web Client Authentication
            X509v3 Subject Key Identifier: 
                8A:C7:01:A3:3F:B8:C4:A0:03:39:75:F1:E8:51:0C:FB:26:10:FD:8A
            X509v3 Authority Key Identifier: 
                keyid:C4:05:E9:64:AB:83:A5:5F:74:E4:3B:20:87:69:3D:5A:D2:C6:41:A3

    Signature Algorithm: sha1WithRSAEncryption
         a6:91:7d:e4:1a:d3:80:f1:ff:9b:01:97:54:80:74:f0:29:8c:
         3e:ab:e4:9e:90:bf:bd:05:df:3d:cd:74:d4:a8:9e:95:4e:58:
         f3:9b:05:a8:81:99:78:23:cd:a7:83:30:66:03:19:94:d3:66:
         e9:c7:f3:c6:e3:3f:46:d7:3a:e7:c5:49:8c:30:65:d1:c5:f9:
         21:08:48:82:61:10:46:1d:42:1e:75:33:af:bb:62:6a:fb:ee:
         49:5a:c7:1b:45:50:00:36:53:16:53:46:eb:c6:85:2f:58:c5:
         fb:d3:45:fd:78:5e:9a:80:91:af:96:48:5a:23:ac:51:1f:10:
         82:5b:a8:f5:9e:da:c5:3d:4e:ff:e9:36:99:4d:31:cf:10:b1:
         48:3f:1d:9a:aa:36:14:af:c6:76:dc:71:04:46:19:1f:1b:18:
         b9:10:ed:f1:13:ff:99:92:5a:3f:eb:d8:cb:96:67:54:be:5c:
         38:e3:32:0c:b9:eb:11:a6:56:d7:71:c4:dc:e9:4e:25:aa:a2:
         3c:69:23:9d:70:fa:6b:4e:fc:a5:4c:84:e0:2c:82:9d:9e:95:
         bf:d5:22:64:9b:08:0d:8f:80:3f:4e:07:03:74:c4:9d:ba:92:
         10:32:02:0c:89:44:2c:fd:23:45:75:b5:01:5e:1e:99:e4:9b:
         27:af:ba:09
-----BEGIN CERTIFICATE-----
MIIDUDCCAjigAwIBAgIBAzANBgkqhkiG9w0BAQUFADB0MRMwEQYKCZImiZPyLGQB
GRYDb3JnMRYwFAYKCZImiZPyLGQBGRYGbXBsYW5lMREwDwYDVQQKDAhUZXN0IFBL
STEYMBYGA1UECwwPVGVzdCBTaWduaW5nIENBMRgwFgYDVQQDDA9UZXN0IFNpZ25p
bmcgQ0EwHhcNMTQwNzA4MTQxOTI2WhcNMTYwNzA3MTQxOTI2WjBpMRMwEQYKCZIm
iZPyLGQBGRYDb3JnMRYwFAYKCZImiZPyLGQBGRYGbXBsYW5lMREwDwYDVQQKDAhU
ZXN0IFBLSTEVMBMGA1UECwwMVGVzdCBDbGllbnRzMRAwDgYDVQQDDAdjbGllbnQx
MIGfMA0GCSqGSIb3DQEBAQUAA4GNADCBiQKBgQCyizF9IgB1fRPsoeyOcTXaJY9L
Z3+qkh4w/Cs9LXotRcunWnoVJnDzsmEQ1qUB4Rt7OZ2iTkOLWvqlw0XYE5u2k3Xh
KS3tOganSHi5aPwkbR7HN3bi2uK5umrUMNTGmjAZKsvqJ4J1oNL2DIfllVHz19gf
vg44Lu1Tz6D2Lb6RuwIDAQABo3wwejAOBgNVHQ8BAf8EBAMCBaAwCQYDVR0TBAIw
ADAdBgNVHSUEFjAUBggrBgEFBQcDBAYIKwYBBQUHAwIwHQYDVR0OBBYEFIrHAaM/
uMSgAzl18ehRDPsmEP2KMB8GA1UdIwQYMBaAFMQF6WSrg6VfdOQ7IIdpPVrSxkGj
MA0GCSqGSIb3DQEBBQUAA4IBAQCmkX3kGtOA8f+bAZdUgHTwKYw+q+SekL+9Bd89
zXTUqJ6VTljzmwWogZl4I82ngzBmAxmU02bpx/PG4z9G1zrnxUmMMGXRxfkhCEiC
YRBGHUIedTOvu2Jq++5JWscbRVAANlMWU0brxoUvWMX700X9eF6agJGvlkhaI6xR
HxCCW6j1ntrFPU7/6TaZTTHPELFIPx2aqjYUr8Z23HEERhkfGxi5EO3xE/+Zklo/
69jLlmdUvlw44zIMuesRplbXccTc6U4lqqI8aSOdcPprTvylTITgLIKdnpW/1SJk
mwgNj4A/TgcDdMSdupIQMgIMiUQs/SNFdbUBXh6Z5Jsnr7oJ
-----END CERTIFICATE-----
