Certificate:
    Data:
        Version: 3 (0x2)
        Serial Number: 1 (0x1)
    Signature Algorithm: sha1WithRSAEncryption
        Issuer: DC=org, DC=mplane, O=PKI, OU=Root-CA, CN=Root-CA-1
        Validity
            Not Before: Sep  8 08:57:24 2014 GMT
            Not After : Sep  7 08:57:24 2024 GMT
        Subject: DC=org, DC=mplane, O=PKI, OU=Root-CA, CN=Root-CA-1
        Subject Public Key Info:
            Public Key Algorithm: rsaEncryption
                Public-Key: (4096 bit)
                Modulus:
                    00:c8:b3:ab:ef:97:5f:a8:29:82:a4:f0:11:b4:e9:
                    24:73:56:86:bb:2a:9a:f5:31:4b:9b:4a:ba:35:98:
                    71:c4:70:c6:14:cb:c7:89:ca:2b:81:d7:8e:64:02:
                    c1:f4:c4:9d:89:ea:eb:7a:28:f0:df:f1:64:ff:69:
                    ec:6d:a3:67:3b:a8:c8:c9:a6:e4:72:d6:df:b5:fc:
                    67:07:63:8d:e6:12:3c:86:a8:01:b1:fa:75:55:40:
                    8c:78:10:b8:61:5f:d1:42:b1:f6:8e:17:70:0b:6c:
                    b4:12:1c:35:49:5b:ef:32:05:4f:30:59:bb:ce:ae:
                    e8:b9:da:bf:75:d0:9c:c4:5b:e6:0f:03:0c:66:ce:
                    f4:9f:26:44:28:ab:3c:9f:24:be:1a:94:26:90:98:
                    4f:c9:5a:f4:54:ee:4f:0d:06:a7:62:fa:32:0a:13:
                    c1:29:23:06:97:f8:83:15:ec:84:76:7f:89:e6:51:
                    44:4a:fe:24:5f:90:ca:5f:06:16:5a:ce:71:b8:75:
                    dc:0b:cc:06:ec:1f:0c:66:1a:c6:c3:54:cb:a4:e7:
                    22:fa:45:99:aa:89:6d:80:89:da:24:ff:c4:9b:70:
                    a4:35:06:33:73:e0:6b:e4:1a:07:22:63:0f:2b:49:
                    83:13:73:a4:55:fc:ad:f9:b3:c5:84:7c:0c:e5:52:
                    0d:5b:a3:51:65:1e:6e:c6:14:03:90:5b:e7:45:43:
                    0a:c4:99:c7:17:7e:1c:e5:64:b1:b7:99:1e:cc:2a:
                    fc:f6:dc:68:55:67:d2:a1:00:82:48:ef:5e:05:29:
                    fe:40:dc:b9:79:a4:fe:b3:3f:8b:bd:6d:5f:57:d5:
                    45:47:fe:1a:00:c9:fe:78:8b:4d:20:8d:d0:4d:2a:
                    4b:14:f0:64:ec:b4:2e:82:d3:b6:e7:41:4a:1c:7f:
                    06:df:a6:77:13:b6:38:e7:13:07:4f:57:0c:80:2b:
                    f0:5f:4f:13:41:1a:49:cb:e9:3b:bd:65:f6:ed:fd:
                    ed:83:17:32:8b:22:9f:5a:7c:8a:c4:c8:3a:8f:e9:
                    77:9a:f4:ea:3e:6e:84:7c:7c:77:0f:28:50:89:7b:
                    8e:c2:2c:bd:0f:b8:5f:bd:b0:6d:41:fb:8e:28:fe:
                    80:c8:bf:a9:3f:25:f4:60:be:26:9e:c1:38:41:54:
                    26:82:63:1b:0b:8d:9c:a0:5f:c8:ef:0a:02:52:37:
                    77:78:ae:3e:69:01:ac:11:87:6d:62:e4:26:e6:41:
                    b1:99:52:9b:8e:a0:68:03:a8:eb:30:13:33:03:97:
                    77:0e:e3:05:54:7c:a1:a7:73:65:b2:fb:57:41:49:
                    25:78:58:84:64:a3:e0:00:21:c4:0c:0d:61:ee:62:
                    a2:fa:3b
                Exponent: 65537 (0x10001)
        X509v3 extensions:
            X509v3 Key Usage: critical
                Certificate Sign, CRL Sign
            X509v3 Basic Constraints: critical
                CA:TRUE
            X509v3 Subject Key Identifier: 
                87:6D:10:F0:65:52:FF:05:12:0C:68:12:40:7F:40:9F:15:D5:4F:09
            X509v3 Authority Key Identifier: 
                keyid:87:6D:10:F0:65:52:FF:05:12:0C:68:12:40:7F:40:9F:15:D5:4F:09

    Signature Algorithm: sha1WithRSAEncryption
         44:81:8f:ed:90:8f:b9:23:fa:78:90:5c:70:ca:de:0f:8e:96:
         af:7c:09:b0:7d:84:9e:a2:38:9b:7a:b8:1f:e3:fd:25:24:c6:
         6a:84:dc:6c:ac:fe:68:a9:31:73:04:f4:a4:9d:d1:9e:9f:4d:
         ae:ee:e0:2d:45:df:8b:bd:06:52:f7:1d:09:89:25:26:77:bf:
         60:72:ad:e2:91:35:53:89:e9:3d:88:93:04:0e:00:9f:8d:6a:
         2b:e5:2f:01:cb:16:fa:84:08:19:15:53:6b:46:6a:dd:24:49:
         6f:b3:b8:a6:c8:0e:35:c3:e3:b5:b6:67:3d:9d:7b:69:26:f5:
         5b:c7:25:b1:54:f6:30:19:af:e8:6e:5f:b4:f2:3d:62:88:36:
         5d:d7:d7:0d:2f:8d:7e:4d:9c:79:f7:67:ce:fb:f3:ff:a7:23:
         70:9c:88:7c:20:12:b2:d6:0d:9d:80:90:76:c7:8f:3c:26:7d:
         c7:40:6b:9c:7c:b6:63:bb:97:3b:fb:98:05:72:c5:a3:c9:ee:
         b2:43:ff:b0:19:7d:20:d9:21:6e:b2:25:a7:5a:90:14:bb:b9:
         f2:14:54:b8:86:01:48:e0:c6:54:b4:be:97:b4:fb:aa:88:32:
         c7:9a:b5:43:b3:f3:0d:ba:b4:52:09:c2:7c:49:94:3c:ab:b8:
         bd:0e:d4:f6:62:50:6f:66:40:cc:57:89:f1:bd:8a:73:75:5a:
         b2:2d:c9:e8:c3:69:35:8d:02:f8:0e:19:72:0e:fa:64:df:12:
         7b:93:ba:e3:c2:2d:70:8b:e5:c3:29:24:15:c6:39:06:47:d1:
         f9:be:06:5c:df:d2:89:c0:53:98:49:2e:a7:9b:8a:87:50:66:
         c5:40:17:60:a6:a8:1a:ae:c0:3a:94:6b:ee:a5:b8:94:88:3b:
         4f:a6:1b:c4:c4:7f:aa:b8:e0:c8:ab:ab:fb:16:33:8e:98:f2:
         63:95:01:c3:61:ea:64:18:36:36:56:8f:37:f9:53:fc:a7:7d:
         6b:79:be:0c:67:7b:54:68:4c:82:a0:a8:4e:da:24:f2:f9:fd:
         91:64:d8:a1:a8:8c:4d:ec:4e:ef:98:ca:4e:bf:33:6e:1b:49:
         5e:35:db:9d:b6:63:fb:cf:7d:1f:9a:f5:aa:87:df:7d:d4:86:
         99:01:dc:31:3b:a5:6c:44:5b:c1:10:a6:c9:30:e6:6b:ed:ff:
         ab:47:8a:b1:4f:f6:dd:37:c3:f9:51:23:1b:8b:c5:ae:4c:88:
         e4:53:71:0a:a0:69:51:38:7b:57:14:49:bb:73:29:cf:98:61:
         74:78:59:76:d6:4d:bf:03:ae:16:fa:75:0a:5d:ad:ad:31:89:
         69:8f:a1:92:59:89:04:0a
-----BEGIN CERTIFICATE-----
MIIFoDCCA4igAwIBAgIBATANBgkqhkiG9w0BAQUFADBhMRMwEQYKCZImiZPyLGQB
GRYDb3JnMRYwFAYKCZImiZPyLGQBGRYGbXBsYW5lMQwwCgYDVQQKDANQS0kxEDAO
BgNVBAsMB1Jvb3QtQ0ExEjAQBgNVBAMMCVJvb3QtQ0EtMTAeFw0xNDA5MDgwODU3
MjRaFw0yNDA5MDcwODU3MjRaMGExEzARBgoJkiaJk/IsZAEZFgNvcmcxFjAUBgoJ
kiaJk/IsZAEZFgZtcGxhbmUxDDAKBgNVBAoMA1BLSTEQMA4GA1UECwwHUm9vdC1D
QTESMBAGA1UEAwwJUm9vdC1DQS0xMIICIjANBgkqhkiG9w0BAQEFAAOCAg8AMIIC
CgKCAgEAyLOr75dfqCmCpPARtOkkc1aGuyqa9TFLm0q6NZhxxHDGFMvHicorgdeO
ZALB9MSdierreijw3/Fk/2nsbaNnO6jIyabkctbftfxnB2ON5hI8hqgBsfp1VUCM
eBC4YV/RQrH2jhdwC2y0Ehw1SVvvMgVPMFm7zq7oudq/ddCcxFvmDwMMZs70nyZE
KKs8nyS+GpQmkJhPyVr0VO5PDQanYvoyChPBKSMGl/iDFeyEdn+J5lFESv4kX5DK
XwYWWs5xuHXcC8wG7B8MZhrGw1TLpOci+kWZqoltgInaJP/Em3CkNQYzc+Br5BoH
ImMPK0mDE3OkVfyt+bPFhHwM5VINW6NRZR5uxhQDkFvnRUMKxJnHF34c5WSxt5ke
zCr89txoVWfSoQCCSO9eBSn+QNy5eaT+sz+LvW1fV9VFR/4aAMn+eItNII3QTSpL
FPBk7LQugtO250FKHH8G36Z3E7Y45xMHT1cMgCvwX08TQRpJy+k7vWX27f3tgxcy
iyKfWnyKxMg6j+l3mvTqPm6EfHx3DyhQiXuOwiy9D7hfvbBtQfuOKP6AyL+pPyX0
YL4mnsE4QVQmgmMbC42coF/I7woCUjd3eK4+aQGsEYdtYuQm5kGxmVKbjqBoA6jr
MBMzA5d3DuMFVHyhp3NlsvtXQUkleFiEZKPgACHEDA1h7mKi+jsCAwEAAaNjMGEw
DgYDVR0PAQH/BAQDAgEGMA8GA1UdEwEB/wQFMAMBAf8wHQYDVR0OBBYEFIdtEPBl
Uv8FEgxoEkB/QJ8V1U8JMB8GA1UdIwQYMBaAFIdtEPBlUv8FEgxoEkB/QJ8V1U8J
MA0GCSqGSIb3DQEBBQUAA4ICAQBEgY/tkI+5I/p4kFxwyt4PjpavfAmwfYSeojib
ergf4/0lJMZqhNxsrP5oqTFzBPSkndGen02u7uAtRd+LvQZS9x0JiSUmd79gcq3i
kTVTiek9iJMEDgCfjWor5S8Byxb6hAgZFVNrRmrdJElvs7imyA41w+O1tmc9nXtp
JvVbxyWxVPYwGa/obl+08j1iiDZd19cNL41+TZx592fO+/P/pyNwnIh8IBKy1g2d
gJB2x488Jn3HQGucfLZju5c7+5gFcsWjye6yQ/+wGX0g2SFusiWnWpAUu7nyFFS4
hgFI4MZUtL6XtPuqiDLHmrVDs/MNurRSCcJ8SZQ8q7i9DtT2YlBvZkDMV4nxvYpz
dVqyLcnow2k1jQL4DhlyDvpk3xJ7k7rjwi1wi+XDKSQVxjkGR9H5vgZc39KJwFOY
SS6nm4qHUGbFQBdgpqgarsA6lGvupbiUiDtPphvExH+quODIq6v7FjOOmPJjlQHD
YepkGDY2Vo83+VP8p31reb4MZ3tUaEyCoKhO2iTy+f2RZNihqIxN7E7vmMpOvzNu
G0leNdudtmP7z30fmvWqh9991IaZAdwxO6VsRFvBEKbJMOZr7f+rR4qxT/bdN8P5
USMbi8WuTIjkU3EKoGlROHtXFEm7cynPmGF0eFl21k2/A64W+nUKXa2tMYlpj6GS
WYkECg==
-----END CERTIFICATE-----
