Certificate:
    Data:
        Version: 3 (0x2)
        Serial Number: 2 (0x2)
    Signature Algorithm: sha1WithRSAEncryption
        Issuer: DC=org, DC=mplane, O=PKI, OU=Root-CA, CN=Root-CA-1
        Validity
            Not Before: Sep  8 08:58:01 2014 GMT
            Not After : Sep  7 08:58:01 2024 GMT
        Subject: DC=org, DC=mplane, O=PKI, OU=Signing-CA, CN=Signing-CA-1
        Subject Public Key Info:
            Public Key Algorithm: rsaEncryption
                Public-Key: (2048 bit)
                Modulus:
                    00:b4:27:b1:9b:25:88:18:35:6e:4c:d7:52:68:51:
                    a4:43:79:f2:17:33:10:74:15:3b:c9:3e:dc:85:b2:
                    80:25:36:c5:5d:1f:1f:37:8c:12:c4:29:18:d8:09:
                    d6:92:1b:47:d9:50:fc:bc:c5:63:b8:4a:0a:36:d1:
                    e6:6a:89:ea:33:0d:f5:c1:bc:19:f6:7b:49:80:a7:
                    bc:f0:21:ab:86:af:13:ec:bb:74:44:d3:6a:fe:92:
                    af:c2:af:d1:d6:0f:c1:4e:a5:43:d9:ba:93:7a:cb:
                    b8:57:85:29:c1:84:38:35:57:a2:3e:10:2f:de:52:
                    94:92:a4:ec:2d:0b:60:b7:6f:43:d9:fa:ea:24:51:
                    4a:72:bc:b7:1e:bb:a8:36:20:2c:16:14:d9:25:b4:
                    76:75:05:a1:39:02:ee:11:15:1f:af:86:b8:68:48:
                    e9:6c:6d:9e:c4:4b:a0:d2:88:18:9c:f6:8e:ce:f1:
                    c6:3a:a7:b3:01:d0:6c:d5:80:94:ac:37:60:37:ef:
                    b2:61:40:48:6c:2b:50:34:e9:46:52:7d:07:86:19:
                    98:c6:00:65:fb:91:91:f2:24:c1:ef:d1:9f:9e:55:
                    61:8b:80:80:25:37:20:3d:77:ec:d8:92:0b:16:77:
                    34:e2:5a:bf:0c:8c:15:3f:bf:92:3a:90:f6:75:b3:
                    3b:97
                Exponent: 65537 (0x10001)
        X509v3 extensions:
            X509v3 Key Usage: critical
                Certificate Sign, CRL Sign
            X509v3 Basic Constraints: critical
                CA:TRUE, pathlen:0
            X509v3 Subject Key Identifier: 
                4E:17:4E:AA:91:D1:41:4F:AD:04:AD:19:AB:5B:B3:A0:18:3B:DD:96
            X509v3 Authority Key Identifier: 
                keyid:87:6D:10:F0:65:52:FF:05:12:0C:68:12:40:7F:40:9F:15:D5:4F:09

    Signature Algorithm: sha1WithRSAEncryption
         9e:de:3c:59:3d:a5:c0:61:b8:7d:14:eb:e7:06:67:1d:a7:ae:
         7c:02:bb:16:b6:fe:de:87:45:9f:d2:ad:73:da:a9:43:d8:e1:
         0f:c5:8f:2a:31:50:56:b5:a4:8a:74:da:33:97:03:26:fc:2d:
         ee:ce:0f:2c:02:7b:a2:87:46:b4:17:57:2b:fa:f1:f3:e9:32:
         8f:65:74:1c:75:54:44:6b:da:c3:c3:af:80:75:d9:e8:0c:d4:
         bc:e2:54:b2:f1:eb:26:fa:45:69:16:4a:58:a8:26:f5:e6:5f:
         27:0e:c7:60:c1:92:97:fe:b7:de:1e:37:60:9f:5f:64:19:00:
         22:96:ad:fa:0c:c0:b5:db:62:9f:7e:b9:cf:58:24:39:86:f0:
         1e:85:a8:0d:0b:71:2b:a4:d8:ed:d0:7d:ad:7c:ba:1f:26:5e:
         16:3a:a7:87:50:dc:7e:8b:aa:d9:60:00:73:e7:1b:97:5f:62:
         ac:a1:f4:b7:bb:10:5c:05:00:14:36:aa:52:77:70:de:08:5a:
         22:82:e0:87:1d:ba:fb:8d:8e:44:fd:2a:f3:be:ea:83:2c:2f:
         88:f6:ba:1c:c3:0d:e6:ec:c5:1b:41:e1:e2:a3:f0:17:2e:a3:
         76:0f:36:67:ec:e1:9b:01:ce:f6:34:de:b7:f7:09:c6:74:75:
         7a:5e:a2:23:22:a7:02:cb:f3:ad:17:82:0a:2d:4e:1e:13:3f:
         f4:12:6b:0e:6a:82:26:55:65:d0:a8:ed:04:36:85:4c:cc:e4:
         cc:60:de:71:ba:7f:99:ab:5f:35:eb:5c:53:4f:cd:ca:b3:fc:
         49:b0:5d:db:10:6f:af:15:7b:79:d3:9e:fd:03:44:97:f3:06:
         c4:59:f0:8b:69:8f:a4:33:55:cc:e9:4a:06:d6:7d:8c:cb:27:
         eb:13:4b:b5:1d:4a:5e:a4:d9:7c:c0:98:cd:79:57:7f:30:be:
         6e:76:2c:ea:8a:98:6f:24:50:32:e8:0e:66:76:0c:04:02:7c:
         93:6e:fb:0c:e6:0c:34:f5:d7:29:86:89:91:2e:7e:3a:b4:16:
         65:7d:7d:e6:c3:a5:d7:1b:af:32:cf:b9:bc:f5:b8:22:67:63:
         98:1c:75:d7:a7:42:88:07:55:d4:5c:13:b0:4a:44:75:c1:e7:
         da:66:6a:9d:23:e8:6d:23:57:6f:cc:d6:bb:ba:60:6f:1a:3d:
         2a:7d:c6:3a:6f:f1:b7:df:57:ed:ce:da:08:84:33:5a:68:88:
         f7:b9:43:f0:f4:7f:59:06:41:a8:bf:c7:79:03:66:dc:dd:c9:
         f1:3f:7f:e1:89:8e:c7:1c:6c:d3:35:c9:88:bb:fa:48:83:c3:
         9b:6a:b8:40:ce:83:79:d9
-----BEGIN CERTIFICATE-----
MIIEqTCCApGgAwIBAgIBAjANBgkqhkiG9w0BAQUFADBhMRMwEQYKCZImiZPyLGQB
GRYDb3JnMRYwFAYKCZImiZPyLGQBGRYGbXBsYW5lMQwwCgYDVQQKDANQS0kxEDAO
BgNVBAsMB1Jvb3QtQ0ExEjAQBgNVBAMMCVJvb3QtQ0EtMTAeFw0xNDA5MDgwODU4
MDFaFw0yNDA5MDcwODU4MDFaMGcxEzARBgoJkiaJk/IsZAEZFgNvcmcxFjAUBgoJ
kiaJk/IsZAEZFgZtcGxhbmUxDDAKBgNVBAoMA1BLSTETMBEGA1UECwwKU2lnbmlu
Zy1DQTEVMBMGA1UEAwwMU2lnbmluZy1DQS0xMIIBIjANBgkqhkiG9w0BAQEFAAOC
AQ8AMIIBCgKCAQEAtCexmyWIGDVuTNdSaFGkQ3nyFzMQdBU7yT7chbKAJTbFXR8f
N4wSxCkY2AnWkhtH2VD8vMVjuEoKNtHmaonqMw31wbwZ9ntJgKe88CGrhq8T7Lt0
RNNq/pKvwq/R1g/BTqVD2bqTesu4V4UpwYQ4NVeiPhAv3lKUkqTsLQtgt29D2frq
JFFKcry3HruoNiAsFhTZJbR2dQWhOQLuERUfr4a4aEjpbG2exEug0ogYnPaOzvHG
OqezAdBs1YCUrDdgN++yYUBIbCtQNOlGUn0HhhmYxgBl+5GR8iTB79GfnlVhi4CA
JTcgPXfs2JILFnc04lq/DIwVP7+SOpD2dbM7lwIDAQABo2YwZDAOBgNVHQ8BAf8E
BAMCAQYwEgYDVR0TAQH/BAgwBgEB/wIBADAdBgNVHQ4EFgQUThdOqpHRQU+tBK0Z
q1uzoBg73ZYwHwYDVR0jBBgwFoAUh20Q8GVS/wUSDGgSQH9AnxXVTwkwDQYJKoZI
hvcNAQEFBQADggIBAJ7ePFk9pcBhuH0U6+cGZx2nrnwCuxa2/t6HRZ/SrXPaqUPY
4Q/FjyoxUFa1pIp02jOXAyb8Le7ODywCe6KHRrQXVyv68fPpMo9ldBx1VERr2sPD
r4B12egM1LziVLLx6yb6RWkWSlioJvXmXycOx2DBkpf+t94eN2CfX2QZACKWrfoM
wLXbYp9+uc9YJDmG8B6FqA0LcSuk2O3Qfa18uh8mXhY6p4dQ3H6LqtlgAHPnG5df
Yqyh9Le7EFwFABQ2qlJ3cN4IWiKC4IcduvuNjkT9KvO+6oMsL4j2uhzDDebsxRtB
4eKj8Bcuo3YPNmfs4ZsBzvY03rf3CcZ0dXpeoiMipwLL860XggotTh4TP/QSaw5q
giZVZdCo7QQ2hUzM5Mxg3nG6f5mrXzXrXFNPzcqz/EmwXdsQb68Ve3nTnv0DRJfz
BsRZ8Itpj6QzVczpSgbWfYzLJ+sTS7UdSl6k2XzAmM15V38wvm52LOqKmG8kUDLo
DmZ2DAQCfJNu+wzmDDT11ymGiZEufjq0FmV9febDpdcbrzLPubz1uCJnY5gcdden
QogHVdRcE7BKRHXB59pmap0j6G0jV2/M1ru6YG8aPSp9xjpv8bffV+3O2giEM1po
iPe5Q/D0f1kGQai/x3kDZtzdyfE/f+GJjsccbNM1yYi7+kiDw5tquEDOg3nZ
-----END CERTIFICATE-----
